ARM GAS  C:\Users\RAPHAE~1\AppData\Local\Temp\ccUOewk5.s 			page 1


   1              		.syntax unified
   2              		.cpu cortex-m3
   3              		.fpu softvfp
   4              		.eabi_attribute 20, 1
   5              		.eabi_attribute 21, 1
   6              		.eabi_attribute 23, 3
   7              		.eabi_attribute 24, 1
   8              		.eabi_attribute 25, 1
   9              		.eabi_attribute 26, 1
  10              		.eabi_attribute 30, 6
  11              		.eabi_attribute 18, 4
  12              		.thumb
  13              		.file	"cyfitter_cfg.c"
  20 0000 D1010000 		.text
  20      0200F000 
  20      00000201 
  20      FB0E0D00 
  20      01010101 
  21              	.Ltext0:
  22              		.cfi_sections	.debug_frame
  23              		.section	.text.CYMEMZERO,"ax",%progbits
  24              		.align	2
  25              		.thumb
  26              		.thumb_func
  27              		.type	CYMEMZERO, %function
  28              	CYMEMZERO:
  29              	.LFB0:
  30              		.file 1 ".\\Generated_Source\\PSoC5\\cyfitter_cfg.c"
   1:.\Generated_Source\PSoC5/cyfitter_cfg.c **** /*******************************************************************************
   2:.\Generated_Source\PSoC5/cyfitter_cfg.c **** * FILENAME: cyfitter_cfg.c
   3:.\Generated_Source\PSoC5/cyfitter_cfg.c **** * PSoC Creator 2.2 Component Pack 6
   4:.\Generated_Source\PSoC5/cyfitter_cfg.c **** *
   5:.\Generated_Source\PSoC5/cyfitter_cfg.c **** * Description:
   6:.\Generated_Source\PSoC5/cyfitter_cfg.c **** * This file is automatically generated by PSoC Creator with device 
   7:.\Generated_Source\PSoC5/cyfitter_cfg.c **** * initialization code.  Except for the user defined sections in
   8:.\Generated_Source\PSoC5/cyfitter_cfg.c **** * CyClockStartupError(), this file should not be modified.
   9:.\Generated_Source\PSoC5/cyfitter_cfg.c **** *
  10:.\Generated_Source\PSoC5/cyfitter_cfg.c **** ********************************************************************************
  11:.\Generated_Source\PSoC5/cyfitter_cfg.c **** * Copyright 2013, Cypress Semiconductor Corporation.  All rights reserved.
  12:.\Generated_Source\PSoC5/cyfitter_cfg.c **** * You may use this file only in accordance with the license, terms, conditions, 
  13:.\Generated_Source\PSoC5/cyfitter_cfg.c **** * disclaimers, and limitations in the end user license agreement accompanying 
  14:.\Generated_Source\PSoC5/cyfitter_cfg.c **** * the software package with which this file was provided.
  15:.\Generated_Source\PSoC5/cyfitter_cfg.c **** ********************************************************************************/
  16:.\Generated_Source\PSoC5/cyfitter_cfg.c **** 
  17:.\Generated_Source\PSoC5/cyfitter_cfg.c **** #include <string.h>
  18:.\Generated_Source\PSoC5/cyfitter_cfg.c **** #include <cytypes.h>
  19:.\Generated_Source\PSoC5/cyfitter_cfg.c **** #include <cydevice_trm.h>
  20:.\Generated_Source\PSoC5/cyfitter_cfg.c **** #include <cyfitter.h>
  21:.\Generated_Source\PSoC5/cyfitter_cfg.c **** #include <CyLib.h>
  22:.\Generated_Source\PSoC5/cyfitter_cfg.c **** #include <cyfitter_cfg.h>
  23:.\Generated_Source\PSoC5/cyfitter_cfg.c **** 
ARM GAS  C:\Users\RAPHAE~1\AppData\Local\Temp\ccUOewk5.s 			page 2


  24:.\Generated_Source\PSoC5/cyfitter_cfg.c **** /* Clock startup error codes                                                   */
  25:.\Generated_Source\PSoC5/cyfitter_cfg.c **** #define CYCLOCKSTART_NO_ERROR    0u
  26:.\Generated_Source\PSoC5/cyfitter_cfg.c **** #define CYCLOCKSTART_XTAL_ERROR  1u
  27:.\Generated_Source\PSoC5/cyfitter_cfg.c **** #define CYCLOCKSTART_32KHZ_ERROR 2u
  28:.\Generated_Source\PSoC5/cyfitter_cfg.c **** #define CYCLOCKSTART_PLL_ERROR   3u
  29:.\Generated_Source\PSoC5/cyfitter_cfg.c **** 
  30:.\Generated_Source\PSoC5/cyfitter_cfg.c **** #ifdef CY_NEED_CYCLOCKSTARTUPERROR
  31:.\Generated_Source\PSoC5/cyfitter_cfg.c **** /*******************************************************************************
  32:.\Generated_Source\PSoC5/cyfitter_cfg.c **** * Function Name: CyClockStartupError
  33:.\Generated_Source\PSoC5/cyfitter_cfg.c **** ********************************************************************************
  34:.\Generated_Source\PSoC5/cyfitter_cfg.c **** * Summary:
  35:.\Generated_Source\PSoC5/cyfitter_cfg.c **** *  If an error is encountered during clock configuration (crystal startup error,
  36:.\Generated_Source\PSoC5/cyfitter_cfg.c **** *  PLL lock error, etc.), the system will end up here.  Unless reimplemented by
  37:.\Generated_Source\PSoC5/cyfitter_cfg.c **** *  the customer, this function will stop in an infinite loop.
  38:.\Generated_Source\PSoC5/cyfitter_cfg.c **** *
  39:.\Generated_Source\PSoC5/cyfitter_cfg.c **** * Parameters:
  40:.\Generated_Source\PSoC5/cyfitter_cfg.c **** *   void
  41:.\Generated_Source\PSoC5/cyfitter_cfg.c **** *
  42:.\Generated_Source\PSoC5/cyfitter_cfg.c **** * Return:
  43:.\Generated_Source\PSoC5/cyfitter_cfg.c **** *   void
  44:.\Generated_Source\PSoC5/cyfitter_cfg.c **** *
  45:.\Generated_Source\PSoC5/cyfitter_cfg.c **** *******************************************************************************/
  46:.\Generated_Source\PSoC5/cyfitter_cfg.c **** #if defined(__GNUC__) || defined(__ARMCC_VERSION)
  47:.\Generated_Source\PSoC5/cyfitter_cfg.c **** __attribute__ ((unused))
  48:.\Generated_Source\PSoC5/cyfitter_cfg.c **** #endif
  49:.\Generated_Source\PSoC5/cyfitter_cfg.c **** static void CyClockStartupError(uint8 errorCode);
  50:.\Generated_Source\PSoC5/cyfitter_cfg.c **** #if defined(__GNUC__) || defined(__ARMCC_VERSION)
  51:.\Generated_Source\PSoC5/cyfitter_cfg.c **** __attribute__ ((unused))
  52:.\Generated_Source\PSoC5/cyfitter_cfg.c **** #endif
  53:.\Generated_Source\PSoC5/cyfitter_cfg.c **** static void CyClockStartupError(uint8 errorCode)
  54:.\Generated_Source\PSoC5/cyfitter_cfg.c **** {
  55:.\Generated_Source\PSoC5/cyfitter_cfg.c ****     /* To remove the compiler warning if errorCode not used.                */
  56:.\Generated_Source\PSoC5/cyfitter_cfg.c ****     errorCode = errorCode;
  57:.\Generated_Source\PSoC5/cyfitter_cfg.c **** 
  58:.\Generated_Source\PSoC5/cyfitter_cfg.c ****     /* `#START CyClockStartupError` */
  59:.\Generated_Source\PSoC5/cyfitter_cfg.c **** 
  60:.\Generated_Source\PSoC5/cyfitter_cfg.c ****     /* If we have a clock startup error (bad MHz crystal, PLL lock, etc.),  */
  61:.\Generated_Source\PSoC5/cyfitter_cfg.c ****     /* we will end up here to allow the customer to implement something to  */
  62:.\Generated_Source\PSoC5/cyfitter_cfg.c ****     /* deal with the clock condition.                                       */
  63:.\Generated_Source\PSoC5/cyfitter_cfg.c **** 
  64:.\Generated_Source\PSoC5/cyfitter_cfg.c ****     /* `#END` */
  65:.\Generated_Source\PSoC5/cyfitter_cfg.c **** 
  66:.\Generated_Source\PSoC5/cyfitter_cfg.c ****     /* If nothing else, stop here since the clocks have not started         */
  67:.\Generated_Source\PSoC5/cyfitter_cfg.c ****     /* correctly.                                                           */
  68:.\Generated_Source\PSoC5/cyfitter_cfg.c ****     while(1) {}
  69:.\Generated_Source\PSoC5/cyfitter_cfg.c **** }
  70:.\Generated_Source\PSoC5/cyfitter_cfg.c **** #endif
  71:.\Generated_Source\PSoC5/cyfitter_cfg.c **** 
  72:.\Generated_Source\PSoC5/cyfitter_cfg.c **** 
  73:.\Generated_Source\PSoC5/cyfitter_cfg.c **** #if defined(__GNUC__) || defined(__ARMCC_VERSION)
  74:.\Generated_Source\PSoC5/cyfitter_cfg.c **** 	#define CYPACKED __attribute__ ((packed))
  75:.\Generated_Source\PSoC5/cyfitter_cfg.c **** 	#define CYALIGNED __attribute__ ((aligned))
  76:.\Generated_Source\PSoC5/cyfitter_cfg.c **** 	
  77:.\Generated_Source\PSoC5/cyfitter_cfg.c ****     #if CYDEV_CONFIGURATION_DMA
  78:.\Generated_Source\PSoC5/cyfitter_cfg.c ****         #define DMAINITSEC __attribute__ ((section (".dma_init")))
  79:.\Generated_Source\PSoC5/cyfitter_cfg.c ****     #else
  80:.\Generated_Source\PSoC5/cyfitter_cfg.c ****         #define DMAINITSEC
ARM GAS  C:\Users\RAPHAE~1\AppData\Local\Temp\ccUOewk5.s 			page 3


  81:.\Generated_Source\PSoC5/cyfitter_cfg.c ****     #endif
  82:.\Generated_Source\PSoC5/cyfitter_cfg.c **** 
  83:.\Generated_Source\PSoC5/cyfitter_cfg.c **** 	#if defined(__ARMCC_VERSION)
  84:.\Generated_Source\PSoC5/cyfitter_cfg.c **** 		#define CY_CFG_MEMORY_BARRIER() __memory_changed()
  85:.\Generated_Source\PSoC5/cyfitter_cfg.c **** 	#else
  86:.\Generated_Source\PSoC5/cyfitter_cfg.c **** 		#define CY_CFG_MEMORY_BARRIER() __sync_synchronize()
  87:.\Generated_Source\PSoC5/cyfitter_cfg.c **** 	#endif
  88:.\Generated_Source\PSoC5/cyfitter_cfg.c **** 	
  89:.\Generated_Source\PSoC5/cyfitter_cfg.c **** 
  90:.\Generated_Source\PSoC5/cyfitter_cfg.c **** 	__attribute__ ((unused))
  91:.\Generated_Source\PSoC5/cyfitter_cfg.c **** 	static void CYMEMZERO(void *s, size_t n);
  92:.\Generated_Source\PSoC5/cyfitter_cfg.c **** 	__attribute__ ((unused))
  93:.\Generated_Source\PSoC5/cyfitter_cfg.c **** 	static void CYMEMZERO(void *s, size_t n)
  94:.\Generated_Source\PSoC5/cyfitter_cfg.c **** 	{
  31              		.loc 1 94 0
  32              		.cfi_startproc
  33              		@ args = 0, pretend = 0, frame = 8
  34              		@ frame_needed = 1, uses_anonymous_args = 0
  35 0000 80B5     		push	{r7, lr}
  36              	.LCFI0:
  37              		.cfi_def_cfa_offset 8
  38 0002 82B0     		sub	sp, sp, #8
  39              	.LCFI1:
  40              		.cfi_def_cfa_offset 16
  41 0004 00AF     		add	r7, sp, #0
  42              		.cfi_offset 14, -4
  43              		.cfi_offset 7, -8
  44              	.LCFI2:
  45              		.cfi_def_cfa_register 7
  46 0006 7860     		str	r0, [r7, #4]
  47 0008 3960     		str	r1, [r7, #0]
  95:.\Generated_Source\PSoC5/cyfitter_cfg.c **** 		(void)memset(s, 0, n);
  48              		.loc 1 95 0
  49 000a 7868     		ldr	r0, [r7, #4]
  50 000c 4FF00001 		mov	r1, #0
  51 0010 3A68     		ldr	r2, [r7, #0]
  52 0012 FFF7FEFF 		bl	memset
  96:.\Generated_Source\PSoC5/cyfitter_cfg.c **** 	}
  53              		.loc 1 96 0
  54 0016 07F10807 		add	r7, r7, #8
  55 001a BD46     		mov	sp, r7
  56 001c 80BD     		pop	{r7, pc}
  57              		.cfi_endproc
  58              	.LFE0:
  59              		.size	CYMEMZERO, .-CYMEMZERO
  60 001e 00BF     		.section	.text.CYCONFIGCPY,"ax",%progbits
  61              		.align	2
  62              		.thumb
  63              		.thumb_func
  64              		.type	CYCONFIGCPY, %function
  65              	CYCONFIGCPY:
  66              	.LFB1:
  97:.\Generated_Source\PSoC5/cyfitter_cfg.c **** 	__attribute__ ((unused))
  98:.\Generated_Source\PSoC5/cyfitter_cfg.c **** 	static void CYCONFIGCPY(void *dest, const void *src, size_t n);
  99:.\Generated_Source\PSoC5/cyfitter_cfg.c **** 	__attribute__ ((unused))
 100:.\Generated_Source\PSoC5/cyfitter_cfg.c **** 	static void CYCONFIGCPY(void *dest, const void *src, size_t n)
 101:.\Generated_Source\PSoC5/cyfitter_cfg.c **** 	{
ARM GAS  C:\Users\RAPHAE~1\AppData\Local\Temp\ccUOewk5.s 			page 4


  67              		.loc 1 101 0
  68              		.cfi_startproc
  69              		@ args = 0, pretend = 0, frame = 16
  70              		@ frame_needed = 1, uses_anonymous_args = 0
  71 0000 80B5     		push	{r7, lr}
  72              	.LCFI3:
  73              		.cfi_def_cfa_offset 8
  74 0002 84B0     		sub	sp, sp, #16
  75              	.LCFI4:
  76              		.cfi_def_cfa_offset 24
  77 0004 00AF     		add	r7, sp, #0
  78              		.cfi_offset 14, -4
  79              		.cfi_offset 7, -8
  80              	.LCFI5:
  81              		.cfi_def_cfa_register 7
  82 0006 F860     		str	r0, [r7, #12]
  83 0008 B960     		str	r1, [r7, #8]
  84 000a 7A60     		str	r2, [r7, #4]
 102:.\Generated_Source\PSoC5/cyfitter_cfg.c **** 		(void)memcpy(dest, src, n);
  85              		.loc 1 102 0
  86 000c F868     		ldr	r0, [r7, #12]
  87 000e B968     		ldr	r1, [r7, #8]
  88 0010 7A68     		ldr	r2, [r7, #4]
  89 0012 FFF7FEFF 		bl	memcpy
 103:.\Generated_Source\PSoC5/cyfitter_cfg.c **** 	}
  90              		.loc 1 103 0
  91 0016 07F11007 		add	r7, r7, #16
  92 001a BD46     		mov	sp, r7
  93 001c 80BD     		pop	{r7, pc}
  94              		.cfi_endproc
  95              	.LFE1:
  96              		.size	CYCONFIGCPY, .-CYCONFIGCPY
  97 001e 00BF     		.section	.text.CYCONFIGCPYCODE,"ax",%progbits
  98              		.align	2
  99              		.thumb
 100              		.thumb_func
 101              		.type	CYCONFIGCPYCODE, %function
 102              	CYCONFIGCPYCODE:
 103              	.LFB2:
 104:.\Generated_Source\PSoC5/cyfitter_cfg.c **** 	__attribute__ ((unused))
 105:.\Generated_Source\PSoC5/cyfitter_cfg.c **** 	static void CYCONFIGCPYCODE(void *dest, const void *src, size_t n);
 106:.\Generated_Source\PSoC5/cyfitter_cfg.c **** 	__attribute__ ((unused))
 107:.\Generated_Source\PSoC5/cyfitter_cfg.c **** 	static void CYCONFIGCPYCODE(void *dest, const void *src, size_t n)
 108:.\Generated_Source\PSoC5/cyfitter_cfg.c **** 	{
 104              		.loc 1 108 0
 105              		.cfi_startproc
 106              		@ args = 0, pretend = 0, frame = 16
 107              		@ frame_needed = 1, uses_anonymous_args = 0
 108 0000 80B5     		push	{r7, lr}
 109              	.LCFI6:
 110              		.cfi_def_cfa_offset 8
 111 0002 84B0     		sub	sp, sp, #16
 112              	.LCFI7:
 113              		.cfi_def_cfa_offset 24
 114 0004 00AF     		add	r7, sp, #0
 115              		.cfi_offset 14, -4
 116              		.cfi_offset 7, -8
ARM GAS  C:\Users\RAPHAE~1\AppData\Local\Temp\ccUOewk5.s 			page 5


 117              	.LCFI8:
 118              		.cfi_def_cfa_register 7
 119 0006 F860     		str	r0, [r7, #12]
 120 0008 B960     		str	r1, [r7, #8]
 121 000a 7A60     		str	r2, [r7, #4]
 109:.\Generated_Source\PSoC5/cyfitter_cfg.c **** 		(void)memcpy(dest, src, n);
 122              		.loc 1 109 0
 123 000c F868     		ldr	r0, [r7, #12]
 124 000e B968     		ldr	r1, [r7, #8]
 125 0010 7A68     		ldr	r2, [r7, #4]
 126 0012 FFF7FEFF 		bl	memcpy
 110:.\Generated_Source\PSoC5/cyfitter_cfg.c **** 	}
 127              		.loc 1 110 0
 128 0016 07F11007 		add	r7, r7, #16
 129 001a BD46     		mov	sp, r7
 130 001c 80BD     		pop	{r7, pc}
 131              		.cfi_endproc
 132              	.LFE2:
 133              		.size	CYCONFIGCPYCODE, .-CYCONFIGCPYCODE
 134 001e 00BF     		.section	.text.cfg_dma_init,"ax",%progbits
 135              		.align	2
 136              		.thumb
 137              		.thumb_func
 138              		.type	cfg_dma_init, %function
 139              	cfg_dma_init:
 140              	.LFB3:
 111:.\Generated_Source\PSoC5/cyfitter_cfg.c **** #else
 112:.\Generated_Source\PSoC5/cyfitter_cfg.c **** 	#error Unsupported toolchain
 113:.\Generated_Source\PSoC5/cyfitter_cfg.c **** #endif
 114:.\Generated_Source\PSoC5/cyfitter_cfg.c **** 
 115:.\Generated_Source\PSoC5/cyfitter_cfg.c **** /* TMR0 Address: CYREG_TMR0_CFG0 Size (bytes): 12 */
 116:.\Generated_Source\PSoC5/cyfitter_cfg.c **** #define BS_TMR0_VAL ((const uint8 CYFAR *)0x48000000u)
 117:.\Generated_Source\PSoC5/cyfitter_cfg.c **** 
 118:.\Generated_Source\PSoC5/cyfitter_cfg.c **** /* TMR1 Address: CYREG_TMR1_CFG0 Size (bytes): 12 */
 119:.\Generated_Source\PSoC5/cyfitter_cfg.c **** #define BS_TMR1_VAL ((const uint8 CYFAR *)0x4800000Cu)
 120:.\Generated_Source\PSoC5/cyfitter_cfg.c **** 
 121:.\Generated_Source\PSoC5/cyfitter_cfg.c **** /* UDB_1_2_1_CONFIG Address: CYDEV_UCFG_B0_P3_U0_BASE Size (bytes): 128 */
 122:.\Generated_Source\PSoC5/cyfitter_cfg.c **** #define BS_UDB_1_2_1_CONFIG_VAL ((const uint8 CYFAR *)0x48000018u)
 123:.\Generated_Source\PSoC5/cyfitter_cfg.c **** 
 124:.\Generated_Source\PSoC5/cyfitter_cfg.c **** /* UDB_1_0_0_CONFIG Address: CYDEV_UCFG_B1_P2_U0_BASE Size (bytes): 128 */
 125:.\Generated_Source\PSoC5/cyfitter_cfg.c **** #define BS_UDB_1_0_0_CONFIG_VAL ((const uint8 CYFAR *)0x48000098u)
 126:.\Generated_Source\PSoC5/cyfitter_cfg.c **** 
 127:.\Generated_Source\PSoC5/cyfitter_cfg.c **** /* UDB_1_0_1_CONFIG Address: CYDEV_UCFG_B1_P2_U1_BASE Size (bytes): 128 */
 128:.\Generated_Source\PSoC5/cyfitter_cfg.c **** #define BS_UDB_1_0_1_CONFIG_VAL ((const uint8 CYFAR *)0x48000118u)
 129:.\Generated_Source\PSoC5/cyfitter_cfg.c **** 
 130:.\Generated_Source\PSoC5/cyfitter_cfg.c **** /* UDB_1_1_1_CONFIG Address: CYDEV_UCFG_B1_P3_U0_BASE Size (bytes): 128 */
 131:.\Generated_Source\PSoC5/cyfitter_cfg.c **** #define BS_UDB_1_1_1_CONFIG_VAL ((const uint8 CYFAR *)0x48000198u)
 132:.\Generated_Source\PSoC5/cyfitter_cfg.c **** 
 133:.\Generated_Source\PSoC5/cyfitter_cfg.c **** /* UDB_1_1_0_CONFIG Address: CYDEV_UCFG_B1_P3_U1_BASE Size (bytes): 128 */
 134:.\Generated_Source\PSoC5/cyfitter_cfg.c **** #define BS_UDB_1_1_0_CONFIG_VAL ((const uint8 CYFAR *)0x48000218u)
 135:.\Generated_Source\PSoC5/cyfitter_cfg.c **** 
 136:.\Generated_Source\PSoC5/cyfitter_cfg.c **** /* UWRK_B1_WRK_STATCTL_BITS Address: CYDEV_UWRK_UWRK8_B1_BASE + 0x00000070u Size (bytes): 32 */
 137:.\Generated_Source\PSoC5/cyfitter_cfg.c **** #define BS_UWRK_B1_WRK_STATCTL_BITS_VAL ((const uint8 CYFAR *)0x48000298u)
 138:.\Generated_Source\PSoC5/cyfitter_cfg.c **** 
 139:.\Generated_Source\PSoC5/cyfitter_cfg.c **** /* DSI0_0_HV_ROUTING Address: CYDEV_UCFG_DSI13_BASE + 0x00000080u Size (bytes): 128 */
 140:.\Generated_Source\PSoC5/cyfitter_cfg.c **** #define BS_DSI0_0_HV_ROUTING_VAL ((const uint8 CYFAR *)0x480002B8u)
 141:.\Generated_Source\PSoC5/cyfitter_cfg.c **** 
ARM GAS  C:\Users\RAPHAE~1\AppData\Local\Temp\ccUOewk5.s 			page 6


 142:.\Generated_Source\PSoC5/cyfitter_cfg.c **** /* DSISWITCH_0_1 Address: CYDEV_UCFG_DSI12_BASE Size (bytes): 128 */
 143:.\Generated_Source\PSoC5/cyfitter_cfg.c **** #define BS_DSISWITCH_0_1_VAL ((const uint8 CYFAR *)0x48000338u)
 144:.\Generated_Source\PSoC5/cyfitter_cfg.c **** 
 145:.\Generated_Source\PSoC5/cyfitter_cfg.c **** /* DSI0_1_HV_ROUTING Address: CYDEV_UCFG_DSI12_BASE + 0x00000080u Size (bytes): 128 */
 146:.\Generated_Source\PSoC5/cyfitter_cfg.c **** #define BS_DSI0_1_HV_ROUTING_VAL ((const uint8 CYFAR *)0x480003B8u)
 147:.\Generated_Source\PSoC5/cyfitter_cfg.c **** 
 148:.\Generated_Source\PSoC5/cyfitter_cfg.c **** /* UDB_1_0_HV_ROUTING Address: CYDEV_UCFG_B1_P5_ROUTE_BASE + 0x00000080u Size (bytes): 128 */
 149:.\Generated_Source\PSoC5/cyfitter_cfg.c **** #define BS_UDB_1_0_HV_ROUTING_VAL ((const uint8 CYFAR *)0x48000438u)
 150:.\Generated_Source\PSoC5/cyfitter_cfg.c **** 
 151:.\Generated_Source\PSoC5/cyfitter_cfg.c **** /* UDBSWITCH_1_0 Address: CYDEV_UCFG_B1_P2_ROUTE_BASE Size (bytes): 128 */
 152:.\Generated_Source\PSoC5/cyfitter_cfg.c **** #define BS_UDBSWITCH_1_0_VAL ((const uint8 CYFAR *)0x480004B8u)
 153:.\Generated_Source\PSoC5/cyfitter_cfg.c **** 
 154:.\Generated_Source\PSoC5/cyfitter_cfg.c **** /* UDB_2_0_HV_ROUTING Address: CYDEV_UCFG_B1_P2_ROUTE_BASE + 0x00000080u Size (bytes): 128 */
 155:.\Generated_Source\PSoC5/cyfitter_cfg.c **** #define BS_UDB_2_0_HV_ROUTING_VAL ((const uint8 CYFAR *)0x48000538u)
 156:.\Generated_Source\PSoC5/cyfitter_cfg.c **** 
 157:.\Generated_Source\PSoC5/cyfitter_cfg.c **** /* UDBSWITCH_1_1 Address: CYDEV_UCFG_B1_P3_ROUTE_BASE Size (bytes): 128 */
 158:.\Generated_Source\PSoC5/cyfitter_cfg.c **** #define BS_UDBSWITCH_1_1_VAL ((const uint8 CYFAR *)0x480005B8u)
 159:.\Generated_Source\PSoC5/cyfitter_cfg.c **** 
 160:.\Generated_Source\PSoC5/cyfitter_cfg.c **** /* UDB_2_1_HV_ROUTING Address: CYDEV_UCFG_B1_P3_ROUTE_BASE + 0x00000080u Size (bytes): 128 */
 161:.\Generated_Source\PSoC5/cyfitter_cfg.c **** #define BS_UDB_2_1_HV_ROUTING_VAL ((const uint8 CYFAR *)0x48000638u)
 162:.\Generated_Source\PSoC5/cyfitter_cfg.c **** 
 163:.\Generated_Source\PSoC5/cyfitter_cfg.c **** /* UDBSWITCH_1_2 Address: CYDEV_UCFG_B0_P3_ROUTE_BASE Size (bytes): 128 */
 164:.\Generated_Source\PSoC5/cyfitter_cfg.c **** #define BS_UDBSWITCH_1_2_VAL ((const uint8 CYFAR *)0x480006B8u)
 165:.\Generated_Source\PSoC5/cyfitter_cfg.c **** 
 166:.\Generated_Source\PSoC5/cyfitter_cfg.c **** /* UDB_2_2_HV_ROUTING Address: CYDEV_UCFG_B0_P3_ROUTE_BASE + 0x00000080u Size (bytes): 128 */
 167:.\Generated_Source\PSoC5/cyfitter_cfg.c **** #define BS_UDB_2_2_HV_ROUTING_VAL ((const uint8 CYFAR *)0x48000738u)
 168:.\Generated_Source\PSoC5/cyfitter_cfg.c **** 
 169:.\Generated_Source\PSoC5/cyfitter_cfg.c **** /* DSI3_0_HV_ROUTING Address: CYDEV_UCFG_DSI9_BASE + 0x00000080u Size (bytes): 128 */
 170:.\Generated_Source\PSoC5/cyfitter_cfg.c **** #define BS_DSI3_0_HV_ROUTING_VAL ((const uint8 CYFAR *)0x480007B8u)
 171:.\Generated_Source\PSoC5/cyfitter_cfg.c **** 
 172:.\Generated_Source\PSoC5/cyfitter_cfg.c **** /* DSI3_1_HV_ROUTING Address: CYDEV_UCFG_DSI8_BASE + 0x00000080u Size (bytes): 128 */
 173:.\Generated_Source\PSoC5/cyfitter_cfg.c **** #define BS_DSI3_1_HV_ROUTING_VAL ((const uint8 CYFAR *)0x48000838u)
 174:.\Generated_Source\PSoC5/cyfitter_cfg.c **** 
 175:.\Generated_Source\PSoC5/cyfitter_cfg.c **** /* DSISWITCH_1_2 Address: CYDEV_UCFG_DSI3_BASE Size (bytes): 128 */
 176:.\Generated_Source\PSoC5/cyfitter_cfg.c **** #define BS_DSISWITCH_1_2_VAL ((const uint8 CYFAR *)0x480008B8u)
 177:.\Generated_Source\PSoC5/cyfitter_cfg.c **** 
 178:.\Generated_Source\PSoC5/cyfitter_cfg.c **** /* DSI3_2_HV_ROUTING Address: CYDEV_UCFG_DSI3_BASE + 0x00000080u Size (bytes): 128 */
 179:.\Generated_Source\PSoC5/cyfitter_cfg.c **** #define BS_DSI3_2_HV_ROUTING_VAL ((const uint8 CYFAR *)0x48000938u)
 180:.\Generated_Source\PSoC5/cyfitter_cfg.c **** 
 181:.\Generated_Source\PSoC5/cyfitter_cfg.c **** /* DSI3_3_HV_ROUTING Address: CYDEV_UCFG_DSI2_BASE + 0x00000080u Size (bytes): 128 */
 182:.\Generated_Source\PSoC5/cyfitter_cfg.c **** #define BS_DSI3_3_HV_ROUTING_VAL ((const uint8 CYFAR *)0x480009B8u)
 183:.\Generated_Source\PSoC5/cyfitter_cfg.c **** 
 184:.\Generated_Source\PSoC5/cyfitter_cfg.c **** /* DSISWITCH_1_4 Address: CYDEV_UCFG_DSI1_BASE Size (bytes): 128 */
 185:.\Generated_Source\PSoC5/cyfitter_cfg.c **** #define BS_DSISWITCH_1_4_VAL ((const uint8 CYFAR *)0x48000A38u)
 186:.\Generated_Source\PSoC5/cyfitter_cfg.c **** 
 187:.\Generated_Source\PSoC5/cyfitter_cfg.c **** /* DSI3_4_HV_ROUTING Address: CYDEV_UCFG_DSI1_BASE + 0x00000080u Size (bytes): 128 */
 188:.\Generated_Source\PSoC5/cyfitter_cfg.c **** #define BS_DSI3_4_HV_ROUTING_VAL ((const uint8 CYFAR *)0x48000AB8u)
 189:.\Generated_Source\PSoC5/cyfitter_cfg.c **** 
 190:.\Generated_Source\PSoC5/cyfitter_cfg.c **** /* UCFG_BCTL1 Address: CYREG_BCTL1_MDCLK_EN Size (bytes): 16 */
 191:.\Generated_Source\PSoC5/cyfitter_cfg.c **** #define BS_UCFG_BCTL1_VAL ((const uint8 CYFAR *)0x48000B38u)
 192:.\Generated_Source\PSoC5/cyfitter_cfg.c **** 
 193:.\Generated_Source\PSoC5/cyfitter_cfg.c **** /* IOPINS0_0 Address: CYREG_PRT0_DR Size (bytes): 10 */
 194:.\Generated_Source\PSoC5/cyfitter_cfg.c **** #define BS_IOPINS0_0_VAL ((const uint8 CYFAR *)0x48000B48u)
 195:.\Generated_Source\PSoC5/cyfitter_cfg.c **** 
 196:.\Generated_Source\PSoC5/cyfitter_cfg.c **** /* IOPINS0_1 Address: CYREG_PRT1_DM0 Size (bytes): 8 */
 197:.\Generated_Source\PSoC5/cyfitter_cfg.c **** #define BS_IOPINS0_1_VAL ((const uint8 CYFAR *)0x48000B54u)
 198:.\Generated_Source\PSoC5/cyfitter_cfg.c **** 
ARM GAS  C:\Users\RAPHAE~1\AppData\Local\Temp\ccUOewk5.s 			page 7


 199:.\Generated_Source\PSoC5/cyfitter_cfg.c **** 
 200:.\Generated_Source\PSoC5/cyfitter_cfg.c **** /*******************************************************************************
 201:.\Generated_Source\PSoC5/cyfitter_cfg.c **** * Function Name: cfg_dma_init
 202:.\Generated_Source\PSoC5/cyfitter_cfg.c **** ********************************************************************************
 203:.\Generated_Source\PSoC5/cyfitter_cfg.c **** * Summary:
 204:.\Generated_Source\PSoC5/cyfitter_cfg.c **** *  This function is used to copy device configuration data from constant values
 205:.\Generated_Source\PSoC5/cyfitter_cfg.c **** *  stored in memory into the proper chip configuration registers using DMA.  It
 206:.\Generated_Source\PSoC5/cyfitter_cfg.c **** *  pulls data out of the CFG_TD_LISTs to know exactly how/what to configure.
 207:.\Generated_Source\PSoC5/cyfitter_cfg.c **** *
 208:.\Generated_Source\PSoC5/cyfitter_cfg.c **** * Parameters:  
 209:.\Generated_Source\PSoC5/cyfitter_cfg.c **** *   void
 210:.\Generated_Source\PSoC5/cyfitter_cfg.c **** *
 211:.\Generated_Source\PSoC5/cyfitter_cfg.c **** * Return:
 212:.\Generated_Source\PSoC5/cyfitter_cfg.c **** *   void
 213:.\Generated_Source\PSoC5/cyfitter_cfg.c **** *
 214:.\Generated_Source\PSoC5/cyfitter_cfg.c **** *******************************************************************************/
 215:.\Generated_Source\PSoC5/cyfitter_cfg.c **** static void cfg_dma_init(void);
 216:.\Generated_Source\PSoC5/cyfitter_cfg.c **** static void cfg_dma_init(void)
 217:.\Generated_Source\PSoC5/cyfitter_cfg.c **** {
 141              		.loc 1 217 0
 142              		.cfi_startproc
 143              		@ args = 0, pretend = 0, frame = 8
 144              		@ frame_needed = 1, uses_anonymous_args = 0
 145              		@ link register save eliminated.
 146 0000 80B4     		push	{r7}
 147              	.LCFI9:
 148              		.cfi_def_cfa_offset 4
 149 0002 83B0     		sub	sp, sp, #12
 150              	.LCFI10:
 151              		.cfi_def_cfa_offset 16
 152 0004 00AF     		add	r7, sp, #0
 153              		.cfi_offset 7, -4
 154              	.LCFI11:
 155              		.cfi_def_cfa_register 7
 218:.\Generated_Source\PSoC5/cyfitter_cfg.c **** 	/* TD structure for little-endian systems. Does not require endian swap */
 219:.\Generated_Source\PSoC5/cyfitter_cfg.c **** 	struct td_t {
 220:.\Generated_Source\PSoC5/cyfitter_cfg.c **** 		uint16 size;
 221:.\Generated_Source\PSoC5/cyfitter_cfg.c **** 		uint8 next_td_ptr;
 222:.\Generated_Source\PSoC5/cyfitter_cfg.c **** 		uint8 flags;
 223:.\Generated_Source\PSoC5/cyfitter_cfg.c **** 		uint16 src;
 224:.\Generated_Source\PSoC5/cyfitter_cfg.c **** 		uint16 dest;
 225:.\Generated_Source\PSoC5/cyfitter_cfg.c **** 	} CYPACKED;
 226:.\Generated_Source\PSoC5/cyfitter_cfg.c **** 
 227:.\Generated_Source\PSoC5/cyfitter_cfg.c **** 	/* PHUB_CH1_CFGMEM_CFG0/1 initialization data */
 228:.\Generated_Source\PSoC5/cyfitter_cfg.c **** 	static const uint8 CYCODE CH1_ADDR_DATA0[] DMAINITSEC = { 0x01u, 0x00u, 0x00u, 0x00u, 0x00u, 0x20u
 229:.\Generated_Source\PSoC5/cyfitter_cfg.c **** 
 230:.\Generated_Source\PSoC5/cyfitter_cfg.c **** 	/* PHUB_CH2_CFGMEM_CFG0/1 initialization data */
 231:.\Generated_Source\PSoC5/cyfitter_cfg.c **** 	static const uint8 CYCODE CH2_ADDR_DATA0[] DMAINITSEC = { 0x01u, 0x00u, 0x00u, 0x00u, 0x00u, 0x20u
 232:.\Generated_Source\PSoC5/cyfitter_cfg.c **** 
 233:.\Generated_Source\PSoC5/cyfitter_cfg.c **** 	/* PHUB_CH5_CFGMEM_CFG0/1 initialization data */
 234:.\Generated_Source\PSoC5/cyfitter_cfg.c **** 	static const uint8 CYCODE CH5_ADDR_DATA0[] DMAINITSEC = { 0x01u, 0x00u, 0x00u, 0x00u, 0x00u, 0x48u
 235:.\Generated_Source\PSoC5/cyfitter_cfg.c **** 
 236:.\Generated_Source\PSoC5/cyfitter_cfg.c **** 	/* PHUB_CH6_CFGMEM_CFG0/1 initialization data */
 237:.\Generated_Source\PSoC5/cyfitter_cfg.c **** 	static const uint8 CYCODE CH6_ADDR_DATA0[] DMAINITSEC = { 0x01u, 0x00u, 0x00u, 0x00u, 0x00u, 0x48u
 238:.\Generated_Source\PSoC5/cyfitter_cfg.c **** 
 239:.\Generated_Source\PSoC5/cyfitter_cfg.c **** 	/* Initialization data for each DMA channel's TD registers */
 240:.\Generated_Source\PSoC5/cyfitter_cfg.c **** 	static const uint8 CYCODE DMA_TD_START_CMD[] DMAINITSEC = { 0x01u, 0x00u, 0x00u, 0x00u, 0x01u };
ARM GAS  C:\Users\RAPHAE~1\AppData\Local\Temp\ccUOewk5.s 			page 8


 241:.\Generated_Source\PSoC5/cyfitter_cfg.c **** 
 242:.\Generated_Source\PSoC5/cyfitter_cfg.c **** 	static uint32 CYXDATA DMA_ZERO_VAL CYALIGNED;
 243:.\Generated_Source\PSoC5/cyfitter_cfg.c **** 
 244:.\Generated_Source\PSoC5/cyfitter_cfg.c **** 	/* This table holds all of the initialization data necessary for the DMA
 245:.\Generated_Source\PSoC5/cyfitter_cfg.c **** 	   process to transfer data from the source location to the destination. */
 246:.\Generated_Source\PSoC5/cyfitter_cfg.c **** 	/* Source addresses can be relocated, but only when in 32bit addresses.
 247:.\Generated_Source\PSoC5/cyfitter_cfg.c **** 	   Because the standard TD table only has 16bit addresses, we generate a
 248:.\Generated_Source\PSoC5/cyfitter_cfg.c **** 	   separate CFG_TD_ADDR table for the source addresses that supports 32bit
 249:.\Generated_Source\PSoC5/cyfitter_cfg.c **** 	   addresses. */
 250:.\Generated_Source\PSoC5/cyfitter_cfg.c **** 	static const struct td_t CYCODE CFG_TD_LIST0[] DMAINITSEC = {
 251:.\Generated_Source\PSoC5/cyfitter_cfg.c **** 		/* Size, Next, Flags, Source, Destination */
 252:.\Generated_Source\PSoC5/cyfitter_cfg.c **** 		{ 8u, 0x02u, 0x23u, (uint16)(uint32)(0u), (uint16)(CYREG_PHUB_CFGMEM1_CFG0) },	/* TD 1 */
 253:.\Generated_Source\PSoC5/cyfitter_cfg.c **** 		{ 8u, 0x03u, 0x23u, (uint16)(uint32)(0u), (uint16)(CYREG_PHUB_CFGMEM2_CFG0) },	/* TD 2 */
 254:.\Generated_Source\PSoC5/cyfitter_cfg.c **** 		{ 8u, 0x04u, 0x23u, (uint16)(uint32)(0u), (uint16)(CYREG_PHUB_CFGMEM5_CFG0) },	/* TD 3 */
 255:.\Generated_Source\PSoC5/cyfitter_cfg.c **** 		{ 8u, 0x05u, 0x23u, (uint16)(uint32)(0u), (uint16)(CYREG_PHUB_CFGMEM6_CFG0) },	/* TD 4 */
 256:.\Generated_Source\PSoC5/cyfitter_cfg.c **** 		{ 5u, 0x06u, 0x23u, (uint16)(uint32)(0u), (uint16)(CYREG_PHUB_CH1_BASIC_CFG) },	/* TD 5 */
 257:.\Generated_Source\PSoC5/cyfitter_cfg.c **** 		{ 5u, 0x07u, 0x23u, (uint16)(uint32)(0u), (uint16)(CYREG_PHUB_CH2_BASIC_CFG) },	/* TD 6 */
 258:.\Generated_Source\PSoC5/cyfitter_cfg.c **** 		{ 5u, 0x08u, 0x23u, (uint16)(uint32)(0u), (uint16)(CYREG_PHUB_CH5_BASIC_CFG) },	/* TD 7 */
 259:.\Generated_Source\PSoC5/cyfitter_cfg.c **** 		{ 5u, 0xFEu, 0x23u, (uint16)(uint32)(0u), (uint16)(CYREG_PHUB_CH6_BASIC_CFG) },	/* TD 8 */
 260:.\Generated_Source\PSoC5/cyfitter_cfg.c **** 		{ 80u, 0x0Au, 0x22u, (uint16)(uint32)(0u), (uint16)(CYREG_PRT2_DR) },	/* TD 9 */
 261:.\Generated_Source\PSoC5/cyfitter_cfg.c **** 		{ 16u, 0x0Bu, 0x22u, (uint16)(uint32)(0u), (uint16)(CYREG_PRT12_DR) },	/* TD 10 */
 262:.\Generated_Source\PSoC5/cyfitter_cfg.c **** 		{ 16u, 0xFEu, 0x22u, (uint16)(uint32)(0u), (uint16)(CYREG_PRT15_DR) },	/* TD 11 */
 263:.\Generated_Source\PSoC5/cyfitter_cfg.c **** 		{ 1536u, 0x0Du, 0x22u, (uint16)(uint32)(0u), (uint16)(CYDEV_UCFG_B0_P0_U0_BASE) },	/* TD 12 */
 264:.\Generated_Source\PSoC5/cyfitter_cfg.c **** 		{ 128u, 0x0Eu, 0x22u, (uint16)(uint32)(0u), (uint16)(CYDEV_UCFG_B0_P3_U1_BASE) },	/* TD 13 */
 265:.\Generated_Source\PSoC5/cyfitter_cfg.c **** 		{ 2048u, 0x0Fu, 0x22u, (uint16)(uint32)(0u), (uint16)(CYDEV_UCFG_B0_P4_U0_BASE) },	/* TD 14 */
 266:.\Generated_Source\PSoC5/cyfitter_cfg.c **** 		{ 896u, 0x10u, 0x22u, (uint16)(uint32)(0u), (uint16)(CYDEV_UCFG_B1_P4_U0_BASE) },	/* TD 15 */
 267:.\Generated_Source\PSoC5/cyfitter_cfg.c **** 		{ 256u, 0x11u, 0x22u, (uint16)(uint32)(0u), (uint16)(CYDEV_UCFG_DSI0_BASE) },	/* TD 16 */
 268:.\Generated_Source\PSoC5/cyfitter_cfg.c **** 		{ 128u, 0x12u, 0x22u, (uint16)(uint32)(0u), (uint16)(CYDEV_UCFG_DSI2_BASE) },	/* TD 17 */
 269:.\Generated_Source\PSoC5/cyfitter_cfg.c **** 		{ 1152u, 0x13u, 0x22u, (uint16)(uint32)(0u), (uint16)(CYDEV_UCFG_DSI4_BASE) },	/* TD 18 */
 270:.\Generated_Source\PSoC5/cyfitter_cfg.c **** 		{ 128u, 0x14u, 0x22u, (uint16)(uint32)(0u), (uint16)(CYDEV_UCFG_DSI9_BASE) },	/* TD 19 */
 271:.\Generated_Source\PSoC5/cyfitter_cfg.c **** 		{ 128u, 0x15u, 0x22u, (uint16)(uint32)(0u), (uint16)(CYDEV_UCFG_DSI13_BASE) },	/* TD 20 */
 272:.\Generated_Source\PSoC5/cyfitter_cfg.c **** 		{ 16u, 0xFEu, 0x22u, (uint16)(uint32)(0u), (uint16)(CYREG_BCTL0_MDCLK_EN) },	/* TD 21 */
 273:.\Generated_Source\PSoC5/cyfitter_cfg.c **** 		{ 12u, 0x17u, 0x23u, (uint16)(uint32)(0u), (uint16)(CYREG_TMR0_CFG0) },	/* TD 22 */
 274:.\Generated_Source\PSoC5/cyfitter_cfg.c **** 		{ 12u, 0x18u, 0x23u, (uint16)(uint32)(0u), (uint16)(CYREG_TMR1_CFG0) },	/* TD 23 */
 275:.\Generated_Source\PSoC5/cyfitter_cfg.c **** 		{ 32u, 0xFEu, 0x23u, (uint16)(uint32)(0u), (uint16)(CYDEV_UWRK_UWRK8_B1_BASE + 0x00000070u) },	/*
 276:.\Generated_Source\PSoC5/cyfitter_cfg.c **** 		{ 128u, 0x1Au, 0x23u, (uint16)(uint32)(0u), (uint16)(CYDEV_UCFG_B0_P3_U0_BASE) },	/* TD 25 */
 277:.\Generated_Source\PSoC5/cyfitter_cfg.c **** 		{ 128u, 0x1Bu, 0x23u, (uint16)(uint32)(0u), (uint16)(CYDEV_UCFG_B1_P2_U0_BASE) },	/* TD 26 */
 278:.\Generated_Source\PSoC5/cyfitter_cfg.c **** 		{ 128u, 0x1Cu, 0x23u, (uint16)(uint32)(0u), (uint16)(CYDEV_UCFG_B1_P2_U1_BASE) },	/* TD 27 */
 279:.\Generated_Source\PSoC5/cyfitter_cfg.c **** 		{ 128u, 0x1Du, 0x23u, (uint16)(uint32)(0u), (uint16)(CYDEV_UCFG_B1_P3_U0_BASE) },	/* TD 28 */
 280:.\Generated_Source\PSoC5/cyfitter_cfg.c **** 		{ 128u, 0x1Eu, 0x23u, (uint16)(uint32)(0u), (uint16)(CYDEV_UCFG_B1_P3_U1_BASE) },	/* TD 29 */
 281:.\Generated_Source\PSoC5/cyfitter_cfg.c **** 		{ 128u, 0x1Fu, 0x23u, (uint16)(uint32)(0u), (uint16)(CYDEV_UCFG_DSI13_BASE + 0x00000080u) },	/* T
 282:.\Generated_Source\PSoC5/cyfitter_cfg.c **** 		{ 128u, 0x20u, 0x23u, (uint16)(uint32)(0u), (uint16)(CYDEV_UCFG_DSI12_BASE) },	/* TD 31 */
 283:.\Generated_Source\PSoC5/cyfitter_cfg.c **** 		{ 128u, 0x21u, 0x23u, (uint16)(uint32)(0u), (uint16)(CYDEV_UCFG_DSI12_BASE + 0x00000080u) },	/* T
 284:.\Generated_Source\PSoC5/cyfitter_cfg.c **** 		{ 128u, 0x22u, 0x23u, (uint16)(uint32)(0u), (uint16)(CYDEV_UCFG_B1_P5_ROUTE_BASE + 0x00000080u) }
 285:.\Generated_Source\PSoC5/cyfitter_cfg.c **** 		{ 128u, 0x23u, 0x23u, (uint16)(uint32)(0u), (uint16)(CYDEV_UCFG_B1_P2_ROUTE_BASE) },	/* TD 34 */
 286:.\Generated_Source\PSoC5/cyfitter_cfg.c **** 		{ 128u, 0x24u, 0x23u, (uint16)(uint32)(0u), (uint16)(CYDEV_UCFG_B1_P2_ROUTE_BASE + 0x00000080u) }
 287:.\Generated_Source\PSoC5/cyfitter_cfg.c **** 		{ 128u, 0x25u, 0x23u, (uint16)(uint32)(0u), (uint16)(CYDEV_UCFG_B1_P3_ROUTE_BASE) },	/* TD 36 */
 288:.\Generated_Source\PSoC5/cyfitter_cfg.c **** 		{ 128u, 0x26u, 0x23u, (uint16)(uint32)(0u), (uint16)(CYDEV_UCFG_B1_P3_ROUTE_BASE + 0x00000080u) }
 289:.\Generated_Source\PSoC5/cyfitter_cfg.c **** 		{ 128u, 0x27u, 0x23u, (uint16)(uint32)(0u), (uint16)(CYDEV_UCFG_B0_P3_ROUTE_BASE) },	/* TD 38 */
 290:.\Generated_Source\PSoC5/cyfitter_cfg.c **** 		{ 128u, 0x28u, 0x23u, (uint16)(uint32)(0u), (uint16)(CYDEV_UCFG_B0_P3_ROUTE_BASE + 0x00000080u) }
 291:.\Generated_Source\PSoC5/cyfitter_cfg.c **** 		{ 128u, 0x29u, 0x23u, (uint16)(uint32)(0u), (uint16)(CYDEV_UCFG_DSI9_BASE + 0x00000080u) },	/* TD
 292:.\Generated_Source\PSoC5/cyfitter_cfg.c **** 		{ 128u, 0x2Au, 0x23u, (uint16)(uint32)(0u), (uint16)(CYDEV_UCFG_DSI8_BASE + 0x00000080u) },	/* TD
 293:.\Generated_Source\PSoC5/cyfitter_cfg.c **** 		{ 128u, 0x2Bu, 0x23u, (uint16)(uint32)(0u), (uint16)(CYDEV_UCFG_DSI3_BASE) },	/* TD 42 */
 294:.\Generated_Source\PSoC5/cyfitter_cfg.c **** 		{ 128u, 0x2Cu, 0x23u, (uint16)(uint32)(0u), (uint16)(CYDEV_UCFG_DSI3_BASE + 0x00000080u) },	/* TD
 295:.\Generated_Source\PSoC5/cyfitter_cfg.c **** 		{ 128u, 0x2Du, 0x23u, (uint16)(uint32)(0u), (uint16)(CYDEV_UCFG_DSI2_BASE + 0x00000080u) },	/* TD
 296:.\Generated_Source\PSoC5/cyfitter_cfg.c **** 		{ 128u, 0x2Eu, 0x23u, (uint16)(uint32)(0u), (uint16)(CYDEV_UCFG_DSI1_BASE) },	/* TD 45 */
 297:.\Generated_Source\PSoC5/cyfitter_cfg.c **** 		{ 128u, 0x2Fu, 0x23u, (uint16)(uint32)(0u), (uint16)(CYDEV_UCFG_DSI1_BASE + 0x00000080u) },	/* TD
ARM GAS  C:\Users\RAPHAE~1\AppData\Local\Temp\ccUOewk5.s 			page 9


 298:.\Generated_Source\PSoC5/cyfitter_cfg.c **** 		{ 16u, 0xFEu, 0x23u, (uint16)(uint32)(0u), (uint16)(CYREG_BCTL1_MDCLK_EN) },	/* TD 47 */
 299:.\Generated_Source\PSoC5/cyfitter_cfg.c **** 	};
 300:.\Generated_Source\PSoC5/cyfitter_cfg.c **** 
 301:.\Generated_Source\PSoC5/cyfitter_cfg.c **** 	/* Source addresses can be relocated, but only when in 32bit addresses.
 302:.\Generated_Source\PSoC5/cyfitter_cfg.c **** 	   Because the standard TD table only has 16bit addresses, we generate a
 303:.\Generated_Source\PSoC5/cyfitter_cfg.c **** 	   separate table for the source addresses that does use 32bit addresses. This
 304:.\Generated_Source\PSoC5/cyfitter_cfg.c **** 	   table will be re-merged with the corresponding CFG_TD_LIST table during
 305:.\Generated_Source\PSoC5/cyfitter_cfg.c **** 	   initialization. */
 306:.\Generated_Source\PSoC5/cyfitter_cfg.c **** 	static const void * const CFG_TD_ADDR0[] = {
 307:.\Generated_Source\PSoC5/cyfitter_cfg.c **** 		(const void *)(CH1_ADDR_DATA0),	/* TD 1 */
 308:.\Generated_Source\PSoC5/cyfitter_cfg.c **** 		(const void *)(CH2_ADDR_DATA0),	/* TD 2 */
 309:.\Generated_Source\PSoC5/cyfitter_cfg.c **** 		(const void *)(CH5_ADDR_DATA0),	/* TD 3 */
 310:.\Generated_Source\PSoC5/cyfitter_cfg.c **** 		(const void *)(CH6_ADDR_DATA0),	/* TD 4 */
 311:.\Generated_Source\PSoC5/cyfitter_cfg.c **** 		(const void *)(DMA_TD_START_CMD),	/* TD 5 */
 312:.\Generated_Source\PSoC5/cyfitter_cfg.c **** 		(const void *)(DMA_TD_START_CMD),	/* TD 6 */
 313:.\Generated_Source\PSoC5/cyfitter_cfg.c **** 		(const void *)(DMA_TD_START_CMD),	/* TD 7 */
 314:.\Generated_Source\PSoC5/cyfitter_cfg.c **** 		(const void *)(DMA_TD_START_CMD),	/* TD 8 */
 315:.\Generated_Source\PSoC5/cyfitter_cfg.c **** 		(const void *)(&DMA_ZERO_VAL),	/* TD 9 */
 316:.\Generated_Source\PSoC5/cyfitter_cfg.c **** 		(const void *)(&DMA_ZERO_VAL),	/* TD 10 */
 317:.\Generated_Source\PSoC5/cyfitter_cfg.c **** 		(const void *)(&DMA_ZERO_VAL),	/* TD 11 */
 318:.\Generated_Source\PSoC5/cyfitter_cfg.c **** 		(const void *)(&DMA_ZERO_VAL),	/* TD 12 */
 319:.\Generated_Source\PSoC5/cyfitter_cfg.c **** 		(const void *)(&DMA_ZERO_VAL),	/* TD 13 */
 320:.\Generated_Source\PSoC5/cyfitter_cfg.c **** 		(const void *)(&DMA_ZERO_VAL),	/* TD 14 */
 321:.\Generated_Source\PSoC5/cyfitter_cfg.c **** 		(const void *)(&DMA_ZERO_VAL),	/* TD 15 */
 322:.\Generated_Source\PSoC5/cyfitter_cfg.c **** 		(const void *)(&DMA_ZERO_VAL),	/* TD 16 */
 323:.\Generated_Source\PSoC5/cyfitter_cfg.c **** 		(const void *)(&DMA_ZERO_VAL),	/* TD 17 */
 324:.\Generated_Source\PSoC5/cyfitter_cfg.c **** 		(const void *)(&DMA_ZERO_VAL),	/* TD 18 */
 325:.\Generated_Source\PSoC5/cyfitter_cfg.c **** 		(const void *)(&DMA_ZERO_VAL),	/* TD 19 */
 326:.\Generated_Source\PSoC5/cyfitter_cfg.c **** 		(const void *)(&DMA_ZERO_VAL),	/* TD 20 */
 327:.\Generated_Source\PSoC5/cyfitter_cfg.c **** 		(const void *)(&DMA_ZERO_VAL),	/* TD 21 */
 328:.\Generated_Source\PSoC5/cyfitter_cfg.c **** 		(const void *)(BS_TMR0_VAL),	/* TD 22 */
 329:.\Generated_Source\PSoC5/cyfitter_cfg.c **** 		(const void *)(BS_TMR1_VAL),	/* TD 23 */
 330:.\Generated_Source\PSoC5/cyfitter_cfg.c **** 		(const void *)(BS_UWRK_B1_WRK_STATCTL_BITS_VAL),	/* TD 24 */
 331:.\Generated_Source\PSoC5/cyfitter_cfg.c **** 		(const void *)(BS_UDB_1_2_1_CONFIG_VAL),	/* TD 25 */
 332:.\Generated_Source\PSoC5/cyfitter_cfg.c **** 		(const void *)(BS_UDB_1_0_0_CONFIG_VAL),	/* TD 26 */
 333:.\Generated_Source\PSoC5/cyfitter_cfg.c **** 		(const void *)(BS_UDB_1_0_1_CONFIG_VAL),	/* TD 27 */
 334:.\Generated_Source\PSoC5/cyfitter_cfg.c **** 		(const void *)(BS_UDB_1_1_1_CONFIG_VAL),	/* TD 28 */
 335:.\Generated_Source\PSoC5/cyfitter_cfg.c **** 		(const void *)(BS_UDB_1_1_0_CONFIG_VAL),	/* TD 29 */
 336:.\Generated_Source\PSoC5/cyfitter_cfg.c **** 		(const void *)(BS_DSI0_0_HV_ROUTING_VAL),	/* TD 30 */
 337:.\Generated_Source\PSoC5/cyfitter_cfg.c **** 		(const void *)(BS_DSISWITCH_0_1_VAL),	/* TD 31 */
 338:.\Generated_Source\PSoC5/cyfitter_cfg.c **** 		(const void *)(BS_DSI0_1_HV_ROUTING_VAL),	/* TD 32 */
 339:.\Generated_Source\PSoC5/cyfitter_cfg.c **** 		(const void *)(BS_UDB_1_0_HV_ROUTING_VAL),	/* TD 33 */
 340:.\Generated_Source\PSoC5/cyfitter_cfg.c **** 		(const void *)(BS_UDBSWITCH_1_0_VAL),	/* TD 34 */
 341:.\Generated_Source\PSoC5/cyfitter_cfg.c **** 		(const void *)(BS_UDB_2_0_HV_ROUTING_VAL),	/* TD 35 */
 342:.\Generated_Source\PSoC5/cyfitter_cfg.c **** 		(const void *)(BS_UDBSWITCH_1_1_VAL),	/* TD 36 */
 343:.\Generated_Source\PSoC5/cyfitter_cfg.c **** 		(const void *)(BS_UDB_2_1_HV_ROUTING_VAL),	/* TD 37 */
 344:.\Generated_Source\PSoC5/cyfitter_cfg.c **** 		(const void *)(BS_UDBSWITCH_1_2_VAL),	/* TD 38 */
 345:.\Generated_Source\PSoC5/cyfitter_cfg.c **** 		(const void *)(BS_UDB_2_2_HV_ROUTING_VAL),	/* TD 39 */
 346:.\Generated_Source\PSoC5/cyfitter_cfg.c **** 		(const void *)(BS_DSI3_0_HV_ROUTING_VAL),	/* TD 40 */
 347:.\Generated_Source\PSoC5/cyfitter_cfg.c **** 		(const void *)(BS_DSI3_1_HV_ROUTING_VAL),	/* TD 41 */
 348:.\Generated_Source\PSoC5/cyfitter_cfg.c **** 		(const void *)(BS_DSISWITCH_1_2_VAL),	/* TD 42 */
 349:.\Generated_Source\PSoC5/cyfitter_cfg.c **** 		(const void *)(BS_DSI3_2_HV_ROUTING_VAL),	/* TD 43 */
 350:.\Generated_Source\PSoC5/cyfitter_cfg.c **** 		(const void *)(BS_DSI3_3_HV_ROUTING_VAL),	/* TD 44 */
 351:.\Generated_Source\PSoC5/cyfitter_cfg.c **** 		(const void *)(BS_DSISWITCH_1_4_VAL),	/* TD 45 */
 352:.\Generated_Source\PSoC5/cyfitter_cfg.c **** 		(const void *)(BS_DSI3_4_HV_ROUTING_VAL),	/* TD 46 */
 353:.\Generated_Source\PSoC5/cyfitter_cfg.c **** 		(const void *)(BS_UCFG_BCTL1_VAL),	/* TD 47 */
 354:.\Generated_Source\PSoC5/cyfitter_cfg.c **** 	};
ARM GAS  C:\Users\RAPHAE~1\AppData\Local\Temp\ccUOewk5.s 			page 10


 355:.\Generated_Source\PSoC5/cyfitter_cfg.c **** 
 356:.\Generated_Source\PSoC5/cyfitter_cfg.c **** 
 357:.\Generated_Source\PSoC5/cyfitter_cfg.c **** 	uint32 i;
 358:.\Generated_Source\PSoC5/cyfitter_cfg.c **** 
 359:.\Generated_Source\PSoC5/cyfitter_cfg.c **** 	DMA_ZERO_VAL = 0u;
 156              		.loc 1 359 0
 157 0006 40F20003 		movw	r3, #:lower16:DMA_ZERO_VAL.1986
 158 000a C0F20003 		movt	r3, #:upper16:DMA_ZERO_VAL.1986
 159 000e 4FF00002 		mov	r2, #0
 160 0012 1A60     		str	r2, [r3, #0]
 360:.\Generated_Source\PSoC5/cyfitter_cfg.c **** 	CY_SET_REG8((void CYXDATA *)CYREG_PHUB_CFGMEM0_CFG0, 0x10u);	/* set burstcnt */
 161              		.loc 1 360 0
 162 0014 47F20063 		movw	r3, #:lower16:1073772032
 163 0018 C4F20003 		movt	r3, #:upper16:1073772032
 164 001c 4FF01002 		mov	r2, #16
 165 0020 1A70     		strb	r2, [r3, #0]
 361:.\Generated_Source\PSoC5/cyfitter_cfg.c **** 	CY_SET_REG8((void CYXDATA *)CYREG_PHUB_CH0_BASIC_CFG, 0x01u);	/* enable ch0 */
 166              		.loc 1 361 0
 167 0022 47F21003 		movw	r3, #:lower16:1073770512
 168 0026 C4F20003 		movt	r3, #:upper16:1073770512
 169 002a 4FF00102 		mov	r2, #1
 170 002e 1A70     		strb	r2, [r3, #0]
 362:.\Generated_Source\PSoC5/cyfitter_cfg.c **** 	CY_SET_REG8((void CYXDATA *)(CYREG_PHUB_CH0_BASIC_STATUS+1u), 0x00u);	/* set first TD to 0 */
 171              		.loc 1 362 0
 172 0030 47F21903 		movw	r3, #:lower16:1073770521
 173 0034 C4F20003 		movt	r3, #:upper16:1073770521
 174 0038 4FF00002 		mov	r2, #0
 175 003c 1A70     		strb	r2, [r3, #0]
 363:.\Generated_Source\PSoC5/cyfitter_cfg.c **** 	CY_SET_REG16((void CYXDATA *)CYREG_PHUB_TDMEM0_ORIG_TD0, 47u*8u);	/* transfer size */
 176              		.loc 1 363 0
 177 003e 47F60003 		movw	r3, #:lower16:1073772544
 178 0042 C4F20003 		movt	r3, #:upper16:1073772544
 179 0046 4FF4BC72 		mov	r2, #376
 180 004a 1A80     		strh	r2, [r3, #0]	@ movhi
 364:.\Generated_Source\PSoC5/cyfitter_cfg.c **** 	CY_SET_REG8((void CYXDATA *)(CYREG_PHUB_TDMEM0_ORIG_TD0+2u), 0x01u);	/* set next TD to 1 */
 181              		.loc 1 364 0
 182 004c 47F60203 		movw	r3, #:lower16:1073772546
 183 0050 C4F20003 		movt	r3, #:upper16:1073772546
 184 0054 4FF00102 		mov	r2, #1
 185 0058 1A70     		strb	r2, [r3, #0]
 365:.\Generated_Source\PSoC5/cyfitter_cfg.c **** 	CY_SET_REG8((void CYXDATA *)(CYREG_PHUB_TDMEM0_ORIG_TD0+3u), 0x03u);	/* set TD flags */
 186              		.loc 1 365 0
 187 005a 47F60303 		movw	r3, #:lower16:1073772547
 188 005e C4F20003 		movt	r3, #:upper16:1073772547
 189 0062 4FF00302 		mov	r2, #3
 190 0066 1A70     		strb	r2, [r3, #0]
 366:.\Generated_Source\PSoC5/cyfitter_cfg.c **** 	CY_SET_REG16((void CYXDATA *)CYREG_PHUB_TDMEM0_ORIG_TD1, (uint16)(uint32)CFG_TD_LIST0);	/* set td0
 191              		.loc 1 366 0
 192 0068 47F60403 		movw	r3, #:lower16:1073772548
 193 006c C4F20003 		movt	r3, #:upper16:1073772548
 194 0070 40F20002 		movw	r2, #:lower16:CFG_TD_LIST0.1987
 195 0074 C0F20002 		movt	r2, #:upper16:CFG_TD_LIST0.1987
 196 0078 92B2     		uxth	r2, r2
 197 007a 1A80     		strh	r2, [r3, #0]	@ movhi
 367:.\Generated_Source\PSoC5/cyfitter_cfg.c **** 	CY_SET_REG16((void CYXDATA *)(CYREG_PHUB_TDMEM0_ORIG_TD1+2u), CYDEV_PHUB_TDMEM1_BASE);	/* set td0'
 198              		.loc 1 367 0
 199 007c 47F60603 		movw	r3, #:lower16:1073772550
ARM GAS  C:\Users\RAPHAE~1\AppData\Local\Temp\ccUOewk5.s 			page 11


 200 0080 C4F20003 		movt	r3, #:upper16:1073772550
 201 0084 47F60802 		movw	r2, #30728
 202 0088 1A80     		strh	r2, [r3, #0]	@ movhi
 368:.\Generated_Source\PSoC5/cyfitter_cfg.c **** 	CY_SET_REG16((void CYXDATA *)CYREG_PHUB_CFGMEM0_CFG1, (uint16)(CYDEV_FLASH_BASE >> 16));	/* set ch
 203              		.loc 1 368 0
 204 008a 47F20463 		movw	r3, #:lower16:1073772036
 205 008e C4F20003 		movt	r3, #:upper16:1073772036
 206 0092 4FF00002 		mov	r2, #0
 207 0096 1A80     		strh	r2, [r3, #0]	@ movhi
 369:.\Generated_Source\PSoC5/cyfitter_cfg.c **** 	CY_SET_REG16((void CYXDATA *)(CYREG_PHUB_CFGMEM0_CFG1+2u), (uint16)(CYDEV_PHUB_TDMEM1_BASE >> 16))
 208              		.loc 1 369 0
 209 0098 47F20663 		movw	r3, #:lower16:1073772038
 210 009c C4F20003 		movt	r3, #:upper16:1073772038
 211 00a0 4FF48042 		mov	r2, #16384
 212 00a4 1A80     		strh	r2, [r3, #0]	@ movhi
 370:.\Generated_Source\PSoC5/cyfitter_cfg.c **** 	CY_SET_REG8((void CYXDATA *)(CYREG_PHUB_CH1_BASIC_STATUS+1u), 0x09u);	/* ch1 first TD: 9 */
 213              		.loc 1 370 0
 214 00a6 47F22903 		movw	r3, #:lower16:1073770537
 215 00aa C4F20003 		movt	r3, #:upper16:1073770537
 216 00ae 4FF00902 		mov	r2, #9
 217 00b2 1A70     		strb	r2, [r3, #0]
 371:.\Generated_Source\PSoC5/cyfitter_cfg.c **** 	CY_SET_REG8((void CYXDATA *)(CYREG_PHUB_CH2_BASIC_STATUS+1u), 0x0Cu);	/* ch2 first TD: 12 */
 218              		.loc 1 371 0
 219 00b4 47F23903 		movw	r3, #:lower16:1073770553
 220 00b8 C4F20003 		movt	r3, #:upper16:1073770553
 221 00bc 4FF00C02 		mov	r2, #12
 222 00c0 1A70     		strb	r2, [r3, #0]
 372:.\Generated_Source\PSoC5/cyfitter_cfg.c **** 	CY_SET_REG8((void CYXDATA *)(CYREG_PHUB_CH5_BASIC_STATUS+1u), 0x16u);	/* ch5 first TD: 22 */
 223              		.loc 1 372 0
 224 00c2 47F26903 		movw	r3, #:lower16:1073770601
 225 00c6 C4F20003 		movt	r3, #:upper16:1073770601
 226 00ca 4FF01602 		mov	r2, #22
 227 00ce 1A70     		strb	r2, [r3, #0]
 373:.\Generated_Source\PSoC5/cyfitter_cfg.c **** 	CY_SET_REG8((void CYXDATA *)(CYREG_PHUB_CH6_BASIC_STATUS+1u), 0x19u);	/* ch6 first TD: 25 */
 228              		.loc 1 373 0
 229 00d0 47F27903 		movw	r3, #:lower16:1073770617
 230 00d4 C4F20003 		movt	r3, #:upper16:1073770617
 231 00d8 4FF01902 		mov	r2, #25
 232 00dc 1A70     		strb	r2, [r3, #0]
 374:.\Generated_Source\PSoC5/cyfitter_cfg.c **** 
 375:.\Generated_Source\PSoC5/cyfitter_cfg.c **** 	CY_CFG_MEMORY_BARRIER();
 233              		.loc 1 375 0
 376:.\Generated_Source\PSoC5/cyfitter_cfg.c **** 	CY_SET_REG8((void CYXDATA *)CYREG_PHUB_CH0_ACTION, 0x01u); /* cpu_req */
 234              		.loc 1 376 0
 235 00de 47F21403 		movw	r3, #:lower16:1073770516
 236 00e2 C4F20003 		movt	r3, #:upper16:1073770516
 237 00e6 4FF00102 		mov	r2, #1
 238 00ea 1A70     		strb	r2, [r3, #0]
 377:.\Generated_Source\PSoC5/cyfitter_cfg.c **** 	CY_CFG_MEMORY_BARRIER();
 239              		.loc 1 377 0
 240              	.L8:
 378:.\Generated_Source\PSoC5/cyfitter_cfg.c **** 
 379:.\Generated_Source\PSoC5/cyfitter_cfg.c **** 	/* Wait for TDs to be copied into TDMEM */
 380:.\Generated_Source\PSoC5/cyfitter_cfg.c **** 	while (CY_GET_REG16((void CYXDATA *)CYREG_PHUB_TDMEM0_ORIG_TD0) != 0u) { }
 241              		.loc 1 380 0
 242 00ec 47F60003 		movw	r3, #:lower16:1073772544
 243 00f0 C4F20003 		movt	r3, #:upper16:1073772544
ARM GAS  C:\Users\RAPHAE~1\AppData\Local\Temp\ccUOewk5.s 			page 12


 244 00f4 1B88     		ldrh	r3, [r3, #0]	@ movhi
 245 00f6 9BB2     		uxth	r3, r3
 246 00f8 002B     		cmp	r3, #0
 247 00fa F7D1     		bne	.L8
 381:.\Generated_Source\PSoC5/cyfitter_cfg.c **** 
 382:.\Generated_Source\PSoC5/cyfitter_cfg.c **** 	/* Recombine TD source table (CFG_TD_ADDR0) with full TD table (CFG_TD_LIST0) */
 383:.\Generated_Source\PSoC5/cyfitter_cfg.c **** 	for (i = 0u; i < 47u; i++)
 248              		.loc 1 383 0
 249 00fc 4FF00003 		mov	r3, #0
 250 0100 7B60     		str	r3, [r7, #4]
 251 0102 15E0     		b	.L9
 252              	.L10:
 384:.\Generated_Source\PSoC5/cyfitter_cfg.c **** 	{
 385:.\Generated_Source\PSoC5/cyfitter_cfg.c **** 		CY_SET_REG16((void CYXDATA *)(CYREG_PHUB_TDMEM1_ORIG_TD1 + (sizeof(struct td_t)*i)), (uint16)(uin
 253              		.loc 1 385 0
 254 0104 7B68     		ldr	r3, [r7, #4]
 255 0106 4FEAC302 		lsl	r2, r3, #3
 256 010a 47F60C03 		movw	r3, #:lower16:1073772556
 257 010e C4F20003 		movt	r3, #:upper16:1073772556
 258 0112 1344     		add	r3, r2, r3
 259 0114 1A46     		mov	r2, r3
 260 0116 7968     		ldr	r1, [r7, #4]
 261 0118 40F20003 		movw	r3, #:lower16:CFG_TD_ADDR0.1988
 262 011c C0F20003 		movt	r3, #:upper16:CFG_TD_ADDR0.1988
 263 0120 53F82130 		ldr	r3, [r3, r1, lsl #2]
 264 0124 9BB2     		uxth	r3, r3
 265 0126 1380     		strh	r3, [r2, #0]	@ movhi
 266              		.loc 1 383 0
 267 0128 7B68     		ldr	r3, [r7, #4]
 268 012a 03F10103 		add	r3, r3, #1
 269 012e 7B60     		str	r3, [r7, #4]
 270              	.L9:
 271 0130 7B68     		ldr	r3, [r7, #4]
 272 0132 2E2B     		cmp	r3, #46
 273 0134 E6D9     		bls	.L10
 386:.\Generated_Source\PSoC5/cyfitter_cfg.c **** 	}
 387:.\Generated_Source\PSoC5/cyfitter_cfg.c **** 
 388:.\Generated_Source\PSoC5/cyfitter_cfg.c **** 	CY_CFG_MEMORY_BARRIER();
 274              		.loc 1 388 0
 389:.\Generated_Source\PSoC5/cyfitter_cfg.c **** 	CY_SET_REG8((void CYXDATA *)CYREG_PHUB_CH0_ACTION, 0x01u); /* cpu_req */
 275              		.loc 1 389 0
 276 0136 47F21403 		movw	r3, #:lower16:1073770516
 277 013a C4F20003 		movt	r3, #:upper16:1073770516
 278 013e 4FF00102 		mov	r2, #1
 279 0142 1A70     		strb	r2, [r3, #0]
 390:.\Generated_Source\PSoC5/cyfitter_cfg.c **** 	CY_CFG_MEMORY_BARRIER();
 280              		.loc 1 390 0
 281              	.L11:
 391:.\Generated_Source\PSoC5/cyfitter_cfg.c **** 
 392:.\Generated_Source\PSoC5/cyfitter_cfg.c **** 	/* Wait for all DMA transfers to complete */
 393:.\Generated_Source\PSoC5/cyfitter_cfg.c **** 	while(0u != (CY_GET_REG8((void CYXDATA *)CYREG_PHUB_CH0_BASIC_STATUS) & 0x01u)){}
 282              		.loc 1 393 0
 283 0144 47F21803 		movw	r3, #:lower16:1073770520
 284 0148 C4F20003 		movt	r3, #:upper16:1073770520
 285 014c 1B78     		ldrb	r3, [r3, #0]
 286 014e DBB2     		uxtb	r3, r3
 287 0150 03F00103 		and	r3, r3, #1
ARM GAS  C:\Users\RAPHAE~1\AppData\Local\Temp\ccUOewk5.s 			page 13


 288 0154 DBB2     		uxtb	r3, r3
 289 0156 002B     		cmp	r3, #0
 290 0158 F4D1     		bne	.L11
 291              	.L12:
 394:.\Generated_Source\PSoC5/cyfitter_cfg.c **** 	while(0u != (CY_GET_REG8((void CYXDATA *)CYREG_PHUB_CH1_BASIC_STATUS) & 0x01u)){}
 292              		.loc 1 394 0
 293 015a 47F22803 		movw	r3, #:lower16:1073770536
 294 015e C4F20003 		movt	r3, #:upper16:1073770536
 295 0162 1B78     		ldrb	r3, [r3, #0]
 296 0164 DBB2     		uxtb	r3, r3
 297 0166 03F00103 		and	r3, r3, #1
 298 016a DBB2     		uxtb	r3, r3
 299 016c 002B     		cmp	r3, #0
 300 016e F4D1     		bne	.L12
 301              	.L13:
 395:.\Generated_Source\PSoC5/cyfitter_cfg.c **** 	while(0u != (CY_GET_REG8((void CYXDATA *)CYREG_PHUB_CH2_BASIC_STATUS) & 0x01u)){}
 302              		.loc 1 395 0
 303 0170 47F23803 		movw	r3, #:lower16:1073770552
 304 0174 C4F20003 		movt	r3, #:upper16:1073770552
 305 0178 1B78     		ldrb	r3, [r3, #0]
 306 017a DBB2     		uxtb	r3, r3
 307 017c 03F00103 		and	r3, r3, #1
 308 0180 DBB2     		uxtb	r3, r3
 309 0182 002B     		cmp	r3, #0
 310 0184 F4D1     		bne	.L13
 311              	.L14:
 396:.\Generated_Source\PSoC5/cyfitter_cfg.c **** 	while(0u != (CY_GET_REG8((void CYXDATA *)CYREG_PHUB_CH5_BASIC_STATUS) & 0x01u)){}
 312              		.loc 1 396 0
 313 0186 47F26803 		movw	r3, #:lower16:1073770600
 314 018a C4F20003 		movt	r3, #:upper16:1073770600
 315 018e 1B78     		ldrb	r3, [r3, #0]
 316 0190 DBB2     		uxtb	r3, r3
 317 0192 03F00103 		and	r3, r3, #1
 318 0196 DBB2     		uxtb	r3, r3
 319 0198 002B     		cmp	r3, #0
 320 019a F4D1     		bne	.L14
 321              	.L15:
 397:.\Generated_Source\PSoC5/cyfitter_cfg.c **** 	while(0u != (CY_GET_REG8((void CYXDATA *)CYREG_PHUB_CH6_BASIC_STATUS) & 0x01u)){}
 322              		.loc 1 397 0
 323 019c 47F27803 		movw	r3, #:lower16:1073770616
 324 01a0 C4F20003 		movt	r3, #:upper16:1073770616
 325 01a4 1B78     		ldrb	r3, [r3, #0]
 326 01a6 DBB2     		uxtb	r3, r3
 327 01a8 03F00103 		and	r3, r3, #1
 328 01ac DBB2     		uxtb	r3, r3
 329 01ae 002B     		cmp	r3, #0
 330 01b0 F4D1     		bne	.L15
 398:.\Generated_Source\PSoC5/cyfitter_cfg.c **** 
 399:.\Generated_Source\PSoC5/cyfitter_cfg.c **** 
 400:.\Generated_Source\PSoC5/cyfitter_cfg.c **** }
 331              		.loc 1 400 0
 332 01b2 07F10C07 		add	r7, r7, #12
 333 01b6 BD46     		mov	sp, r7
 334 01b8 80BC     		pop	{r7}
 335 01ba 7047     		bx	lr
 336              		.cfi_endproc
 337              	.LFE3:
ARM GAS  C:\Users\RAPHAE~1\AppData\Local\Temp\ccUOewk5.s 			page 14


 338              		.size	cfg_dma_init, .-cfg_dma_init
 339              		.section	.text.ClockSetup,"ax",%progbits
 340              		.align	2
 341              		.thumb
 342              		.thumb_func
 343              		.type	ClockSetup, %function
 344              	ClockSetup:
 345              	.LFB4:
 401:.\Generated_Source\PSoC5/cyfitter_cfg.c **** /*******************************************************************************
 402:.\Generated_Source\PSoC5/cyfitter_cfg.c **** * Function Name: ClockSetup
 403:.\Generated_Source\PSoC5/cyfitter_cfg.c **** ********************************************************************************
 404:.\Generated_Source\PSoC5/cyfitter_cfg.c **** *
 405:.\Generated_Source\PSoC5/cyfitter_cfg.c **** * Summary:
 406:.\Generated_Source\PSoC5/cyfitter_cfg.c **** *  Performs the initialization of all of the clocks in the device based on the
 407:.\Generated_Source\PSoC5/cyfitter_cfg.c **** *  settings in the Clock tab of the DWR.  This includes enabling the requested
 408:.\Generated_Source\PSoC5/cyfitter_cfg.c **** *  clocks and setting the necessary dividers to produce the desired frequency. 
 409:.\Generated_Source\PSoC5/cyfitter_cfg.c **** *
 410:.\Generated_Source\PSoC5/cyfitter_cfg.c **** * Parameters:
 411:.\Generated_Source\PSoC5/cyfitter_cfg.c **** *  void
 412:.\Generated_Source\PSoC5/cyfitter_cfg.c **** *
 413:.\Generated_Source\PSoC5/cyfitter_cfg.c **** * Return:
 414:.\Generated_Source\PSoC5/cyfitter_cfg.c **** *  void
 415:.\Generated_Source\PSoC5/cyfitter_cfg.c **** *
 416:.\Generated_Source\PSoC5/cyfitter_cfg.c **** *******************************************************************************/
 417:.\Generated_Source\PSoC5/cyfitter_cfg.c **** static void ClockSetup(void);
 418:.\Generated_Source\PSoC5/cyfitter_cfg.c **** static void ClockSetup(void)
 419:.\Generated_Source\PSoC5/cyfitter_cfg.c **** {
 346              		.loc 1 419 0
 347              		.cfi_startproc
 348              		@ args = 0, pretend = 0, frame = 8
 349              		@ frame_needed = 1, uses_anonymous_args = 0
 350 0000 80B5     		push	{r7, lr}
 351              	.LCFI12:
 352              		.cfi_def_cfa_offset 8
 353 0002 82B0     		sub	sp, sp, #8
 354              	.LCFI13:
 355              		.cfi_def_cfa_offset 16
 356 0004 00AF     		add	r7, sp, #0
 357              		.cfi_offset 14, -4
 358              		.cfi_offset 7, -8
 359              	.LCFI14:
 360              		.cfi_def_cfa_register 7
 420:.\Generated_Source\PSoC5/cyfitter_cfg.c **** 	uint32 timeout;
 421:.\Generated_Source\PSoC5/cyfitter_cfg.c **** 	uint8 pllLock;
 422:.\Generated_Source\PSoC5/cyfitter_cfg.c **** 
 423:.\Generated_Source\PSoC5/cyfitter_cfg.c **** 
 424:.\Generated_Source\PSoC5/cyfitter_cfg.c **** 	/* Configure Digital Clocks based on settings from Clock DWR */
 425:.\Generated_Source\PSoC5/cyfitter_cfg.c **** 	CY_SET_XTND_REG16((void CYFAR *)(CYREG_CLKDIST_DCFG0_CFG0), 0x035Au);
 361              		.loc 1 425 0
 362 0006 44F28003 		movw	r3, #:lower16:1073758336
 363 000a C4F20003 		movt	r3, #:upper16:1073758336
 364 000e 40F25A32 		movw	r2, #858
 365 0012 1A80     		strh	r2, [r3, #0]	@ movhi
 426:.\Generated_Source\PSoC5/cyfitter_cfg.c **** 	CY_SET_XTND_REG8((void CYFAR *)(CYREG_CLKDIST_DCFG0_CFG0 + 0x2u), 0x18u);
 366              		.loc 1 426 0
 367 0014 44F28203 		movw	r3, #:lower16:1073758338
 368 0018 C4F20003 		movt	r3, #:upper16:1073758338
ARM GAS  C:\Users\RAPHAE~1\AppData\Local\Temp\ccUOewk5.s 			page 15


 369 001c 4FF01802 		mov	r2, #24
 370 0020 1A70     		strb	r2, [r3, #0]
 427:.\Generated_Source\PSoC5/cyfitter_cfg.c **** 	CY_SET_XTND_REG16((void CYFAR *)(CYREG_CLKDIST_DCFG1_CFG0), 0x0BB7u);
 371              		.loc 1 427 0
 372 0022 44F28403 		movw	r3, #:lower16:1073758340
 373 0026 C4F20003 		movt	r3, #:upper16:1073758340
 374 002a 40F6B732 		movw	r2, #2999
 375 002e 1A80     		strh	r2, [r3, #0]	@ movhi
 428:.\Generated_Source\PSoC5/cyfitter_cfg.c **** 	CY_SET_XTND_REG8((void CYFAR *)(CYREG_CLKDIST_DCFG1_CFG0 + 0x2u), 0x19u);
 376              		.loc 1 428 0
 377 0030 44F28603 		movw	r3, #:lower16:1073758342
 378 0034 C4F20003 		movt	r3, #:upper16:1073758342
 379 0038 4FF01902 		mov	r2, #25
 380 003c 1A70     		strb	r2, [r3, #0]
 429:.\Generated_Source\PSoC5/cyfitter_cfg.c **** 
 430:.\Generated_Source\PSoC5/cyfitter_cfg.c **** 	/* Configure ILO based on settings from Clock DWR */
 431:.\Generated_Source\PSoC5/cyfitter_cfg.c **** 	CY_SET_XTND_REG8((void CYFAR *)(CYREG_SLOWCLK_ILO_CR0), 0x02u);
 381              		.loc 1 431 0
 382 003e 44F20033 		movw	r3, #:lower16:1073758976
 383 0042 C4F20003 		movt	r3, #:upper16:1073758976
 384 0046 4FF00202 		mov	r2, #2
 385 004a 1A70     		strb	r2, [r3, #0]
 432:.\Generated_Source\PSoC5/cyfitter_cfg.c **** 	CY_SET_XTND_REG8((void CYFAR *)(CYREG_CLKDIST_CR), 0x08u);
 386              		.loc 1 432 0
 387 004c 44F20003 		movw	r3, #:lower16:1073758208
 388 0050 C4F20003 		movt	r3, #:upper16:1073758208
 389 0054 4FF00802 		mov	r2, #8
 390 0058 1A70     		strb	r2, [r3, #0]
 433:.\Generated_Source\PSoC5/cyfitter_cfg.c **** 
 434:.\Generated_Source\PSoC5/cyfitter_cfg.c **** 	/* Configure IMO based on settings from Clock DWR */
 435:.\Generated_Source\PSoC5/cyfitter_cfg.c **** 	CY_SET_XTND_REG8((void CYFAR *)(CYREG_FASTCLK_IMO_CR), 0x03u);
 391              		.loc 1 435 0
 392 005a 44F20023 		movw	r3, #:lower16:1073758720
 393 005e C4F20003 		movt	r3, #:upper16:1073758720
 394 0062 4FF00302 		mov	r2, #3
 395 0066 1A70     		strb	r2, [r3, #0]
 436:.\Generated_Source\PSoC5/cyfitter_cfg.c **** 	CY_SET_XTND_REG8((void CYFAR *)(CYREG_IMO_TR1), (CY_GET_XTND_REG8((void CYFAR *)CYREG_FLSHID_CUST_
 396              		.loc 1 436 0
 397 0068 44F2A163 		movw	r3, #:lower16:1073759905
 398 006c C4F20003 		movt	r3, #:upper16:1073759905
 399 0070 40F20812 		movw	r2, #:lower16:1224737032
 400 0074 C4F60012 		movt	r2, #:upper16:1224737032
 401 0078 1278     		ldrb	r2, [r2, #0]
 402 007a D2B2     		uxtb	r2, r2
 403 007c 1A70     		strb	r2, [r3, #0]
 437:.\Generated_Source\PSoC5/cyfitter_cfg.c **** 
 438:.\Generated_Source\PSoC5/cyfitter_cfg.c **** 	/* Configure PLL based on settings from Clock DWR */
 439:.\Generated_Source\PSoC5/cyfitter_cfg.c **** 	CY_SET_XTND_REG16((void CYFAR *)(CYREG_FASTCLK_PLL_P), 0x0242u);
 404              		.loc 1 439 0
 405 007e 44F22223 		movw	r3, #:lower16:1073758754
 406 0082 C4F20003 		movt	r3, #:upper16:1073758754
 407 0086 40F24222 		movw	r2, #578
 408 008a 1A80     		strh	r2, [r3, #0]	@ movhi
 440:.\Generated_Source\PSoC5/cyfitter_cfg.c **** 	CY_SET_XTND_REG16((void CYFAR *)(CYREG_FASTCLK_PLL_CFG0), 0x1051u);
 409              		.loc 1 440 0
 410 008c 44F22023 		movw	r3, #:lower16:1073758752
 411 0090 C4F20003 		movt	r3, #:upper16:1073758752
ARM GAS  C:\Users\RAPHAE~1\AppData\Local\Temp\ccUOewk5.s 			page 16


 412 0094 41F25102 		movw	r2, #4177
 413 0098 1A80     		strh	r2, [r3, #0]	@ movhi
 441:.\Generated_Source\PSoC5/cyfitter_cfg.c **** 	/* Wait up to 250us for the PLL to lock */
 442:.\Generated_Source\PSoC5/cyfitter_cfg.c **** 	pllLock = 0u;
 414              		.loc 1 442 0
 415 009a 4FF00003 		mov	r3, #0
 416 009e FB71     		strb	r3, [r7, #7]
 443:.\Generated_Source\PSoC5/cyfitter_cfg.c **** 	for (timeout = 250u / 10u; (timeout > 0u) && (pllLock != 0x03u); timeout--) { 
 417              		.loc 1 443 0
 418 00a0 4FF01903 		mov	r3, #25
 419 00a4 3B60     		str	r3, [r7, #0]
 420 00a6 19E0     		b	.L18
 421              	.L20:
 444:.\Generated_Source\PSoC5/cyfitter_cfg.c **** 		pllLock = 0x03u & ((uint8)((uint8)pllLock << 1) | ((CY_GET_XTND_REG8((void CYFAR *)CYREG_FASTCLK_
 422              		.loc 1 444 0
 423 00a8 FB79     		ldrb	r3, [r7, #7]
 424 00aa 4FEA4303 		lsl	r3, r3, #1
 425 00ae DAB2     		uxtb	r2, r3
 426 00b0 44F22523 		movw	r3, #:lower16:1073758757
 427 00b4 C4F20003 		movt	r3, #:upper16:1073758757
 428 00b8 1B78     		ldrb	r3, [r3, #0]
 429 00ba DBB2     		uxtb	r3, r3
 430 00bc 03F00103 		and	r3, r3, #1
 431 00c0 42EA0303 		orr	r3, r2, r3
 432 00c4 DBB2     		uxtb	r3, r3
 433 00c6 03F00303 		and	r3, r3, #3
 434 00ca FB71     		strb	r3, [r7, #7]
 445:.\Generated_Source\PSoC5/cyfitter_cfg.c **** 		CyDelayCycles(10u * 48u); /* Delay 10us based on 48MHz clock */
 435              		.loc 1 445 0
 436 00cc 4FF4F070 		mov	r0, #480
 437 00d0 FFF7FEFF 		bl	CyDelayCycles
 438              		.loc 1 443 0
 439 00d4 3B68     		ldr	r3, [r7, #0]
 440 00d6 03F1FF33 		add	r3, r3, #-1
 441 00da 3B60     		str	r3, [r7, #0]
 442              	.L18:
 443 00dc 3B68     		ldr	r3, [r7, #0]
 444 00de 002B     		cmp	r3, #0
 445 00e0 02D0     		beq	.L19
 446 00e2 FB79     		ldrb	r3, [r7, #7]	@ zero_extendqisi2
 447 00e4 032B     		cmp	r3, #3
 448 00e6 DFD1     		bne	.L20
 449              	.L19:
 446:.\Generated_Source\PSoC5/cyfitter_cfg.c **** 	}
 447:.\Generated_Source\PSoC5/cyfitter_cfg.c **** 
 448:.\Generated_Source\PSoC5/cyfitter_cfg.c **** 	/* Configure Bus/Master Clock based on settings from Clock DWR */
 449:.\Generated_Source\PSoC5/cyfitter_cfg.c **** 	CY_SET_XTND_REG16((void CYFAR *)(CYREG_CLKDIST_MSTR0), 0x0100u);
 450              		.loc 1 449 0
 451 00e8 44F20403 		movw	r3, #:lower16:1073758212
 452 00ec C4F20003 		movt	r3, #:upper16:1073758212
 453 00f0 4FF48072 		mov	r2, #256
 454 00f4 1A80     		strh	r2, [r3, #0]	@ movhi
 450:.\Generated_Source\PSoC5/cyfitter_cfg.c **** 	CY_SET_XTND_REG8((void CYFAR *)(CYREG_CLKDIST_MSTR0), 0x07u);
 455              		.loc 1 450 0
 456 00f6 44F20403 		movw	r3, #:lower16:1073758212
 457 00fa C4F20003 		movt	r3, #:upper16:1073758212
 458 00fe 4FF00702 		mov	r2, #7
ARM GAS  C:\Users\RAPHAE~1\AppData\Local\Temp\ccUOewk5.s 			page 17


 459 0102 1A70     		strb	r2, [r3, #0]
 451:.\Generated_Source\PSoC5/cyfitter_cfg.c **** 	CY_SET_XTND_REG8((void CYFAR *)(CYREG_CLKDIST_BCFG0), 0x00u);
 460              		.loc 1 451 0
 461 0104 44F20603 		movw	r3, #:lower16:1073758214
 462 0108 C4F20003 		movt	r3, #:upper16:1073758214
 463 010c 4FF00002 		mov	r2, #0
 464 0110 1A70     		strb	r2, [r3, #0]
 452:.\Generated_Source\PSoC5/cyfitter_cfg.c **** 	CY_SET_XTND_REG8((void CYFAR *)(CYREG_CLKDIST_BCFG2), 0x48u);
 465              		.loc 1 452 0
 466 0112 44F20803 		movw	r3, #:lower16:1073758216
 467 0116 C4F20003 		movt	r3, #:upper16:1073758216
 468 011a 4FF04802 		mov	r2, #72
 469 011e 1A70     		strb	r2, [r3, #0]
 453:.\Generated_Source\PSoC5/cyfitter_cfg.c **** 	CY_SET_XTND_REG8((void CYFAR *)(CYREG_CLKDIST_MSTR0), 0x00u);
 470              		.loc 1 453 0
 471 0120 44F20403 		movw	r3, #:lower16:1073758212
 472 0124 C4F20003 		movt	r3, #:upper16:1073758212
 473 0128 4FF00002 		mov	r2, #0
 474 012c 1A70     		strb	r2, [r3, #0]
 454:.\Generated_Source\PSoC5/cyfitter_cfg.c **** 	CY_SET_XTND_REG8((void CYFAR *)(CYREG_CLKDIST_LD), 0x02u);
 475              		.loc 1 454 0
 476 012e 44F20103 		movw	r3, #:lower16:1073758209
 477 0132 C4F20003 		movt	r3, #:upper16:1073758209
 478 0136 4FF00202 		mov	r2, #2
 479 013a 1A70     		strb	r2, [r3, #0]
 455:.\Generated_Source\PSoC5/cyfitter_cfg.c **** 
 456:.\Generated_Source\PSoC5/cyfitter_cfg.c **** 	CY_SET_XTND_REG8((void CYFAR *)(CYREG_PM_ACT_CFG2), ((CY_GET_XTND_REG8((void CYFAR *)CYREG_PM_ACT_
 480              		.loc 1 456 0
 481 013c 44F2A233 		movw	r3, #:lower16:1073759138
 482 0140 C4F20003 		movt	r3, #:upper16:1073759138
 483 0144 44F2A232 		movw	r2, #:lower16:1073759138
 484 0148 C4F20002 		movt	r2, #:upper16:1073759138
 485 014c 1278     		ldrb	r2, [r2, #0]
 486 014e D2B2     		uxtb	r2, r2
 487 0150 42F00302 		orr	r2, r2, #3
 488 0154 D2B2     		uxtb	r2, r2
 489 0156 1A70     		strb	r2, [r3, #0]
 457:.\Generated_Source\PSoC5/cyfitter_cfg.c **** }
 490              		.loc 1 457 0
 491 0158 07F10807 		add	r7, r7, #8
 492 015c BD46     		mov	sp, r7
 493 015e 80BD     		pop	{r7, pc}
 494              		.cfi_endproc
 495              	.LFE4:
 496              		.size	ClockSetup, .-ClockSetup
 497              		.section	.text.AnalogSetDefault,"ax",%progbits
 498              		.align	2
 499              		.thumb
 500              		.thumb_func
 501              		.type	AnalogSetDefault, %function
 502              	AnalogSetDefault:
 503              	.LFB5:
 458:.\Generated_Source\PSoC5/cyfitter_cfg.c **** 
 459:.\Generated_Source\PSoC5/cyfitter_cfg.c **** 
 460:.\Generated_Source\PSoC5/cyfitter_cfg.c **** /* Analog API Functions */
 461:.\Generated_Source\PSoC5/cyfitter_cfg.c **** 
 462:.\Generated_Source\PSoC5/cyfitter_cfg.c **** 
ARM GAS  C:\Users\RAPHAE~1\AppData\Local\Temp\ccUOewk5.s 			page 18


 463:.\Generated_Source\PSoC5/cyfitter_cfg.c **** /*******************************************************************************
 464:.\Generated_Source\PSoC5/cyfitter_cfg.c **** * Function Name: AnalogSetDefault
 465:.\Generated_Source\PSoC5/cyfitter_cfg.c **** ********************************************************************************
 466:.\Generated_Source\PSoC5/cyfitter_cfg.c **** *
 467:.\Generated_Source\PSoC5/cyfitter_cfg.c **** * Summary:
 468:.\Generated_Source\PSoC5/cyfitter_cfg.c **** *  Sets up the analog portions of the chip to default values based on chip
 469:.\Generated_Source\PSoC5/cyfitter_cfg.c **** *  configuration options from the project.
 470:.\Generated_Source\PSoC5/cyfitter_cfg.c **** *
 471:.\Generated_Source\PSoC5/cyfitter_cfg.c **** * Parameters:
 472:.\Generated_Source\PSoC5/cyfitter_cfg.c **** *  void
 473:.\Generated_Source\PSoC5/cyfitter_cfg.c **** *
 474:.\Generated_Source\PSoC5/cyfitter_cfg.c **** * Return:
 475:.\Generated_Source\PSoC5/cyfitter_cfg.c **** *  void
 476:.\Generated_Source\PSoC5/cyfitter_cfg.c **** *
 477:.\Generated_Source\PSoC5/cyfitter_cfg.c **** *******************************************************************************/
 478:.\Generated_Source\PSoC5/cyfitter_cfg.c **** static void AnalogSetDefault(void);
 479:.\Generated_Source\PSoC5/cyfitter_cfg.c **** static void AnalogSetDefault(void)
 480:.\Generated_Source\PSoC5/cyfitter_cfg.c **** {
 504              		.loc 1 480 0
 505              		.cfi_startproc
 506              		@ args = 0, pretend = 0, frame = 8
 507              		@ frame_needed = 1, uses_anonymous_args = 0
 508              		@ link register save eliminated.
 509 0000 80B4     		push	{r7}
 510              	.LCFI15:
 511              		.cfi_def_cfa_offset 4
 512 0002 83B0     		sub	sp, sp, #12
 513              	.LCFI16:
 514              		.cfi_def_cfa_offset 16
 515 0004 00AF     		add	r7, sp, #0
 516              		.cfi_offset 7, -4
 517              	.LCFI17:
 518              		.cfi_def_cfa_register 7
 481:.\Generated_Source\PSoC5/cyfitter_cfg.c **** 	uint8 bg_xover_inl_trim = CY_GET_XTND_REG8((void CYFAR *)(CYREG_FLSHID_MFG_CFG_BG_XOVER_INL_TRIM +
 519              		.loc 1 481 0
 520 0006 40F2CF13 		movw	r3, #:lower16:1224737231
 521 000a C4F60013 		movt	r3, #:upper16:1224737231
 522 000e 1B78     		ldrb	r3, [r3, #0]
 523 0010 FB71     		strb	r3, [r7, #7]
 482:.\Generated_Source\PSoC5/cyfitter_cfg.c **** 	CY_SET_XTND_REG8((void CYFAR *)CYREG_BG_DFT0, bg_xover_inl_trim & 0x07u);
 524              		.loc 1 482 0
 525 0012 45F66E03 		movw	r3, #:lower16:1073764462
 526 0016 C4F20003 		movt	r3, #:upper16:1073764462
 527 001a FA79     		ldrb	r2, [r7, #7]	@ zero_extendqisi2
 528 001c 02F00702 		and	r2, r2, #7
 529 0020 1A70     		strb	r2, [r3, #0]
 483:.\Generated_Source\PSoC5/cyfitter_cfg.c **** 	CY_SET_XTND_REG8((void CYFAR *)CYREG_BG_DFT1, ((uint8)((uint8)bg_xover_inl_trim >> 4)) & 0x0Fu);
 530              		.loc 1 483 0
 531 0022 45F66F03 		movw	r3, #:lower16:1073764463
 532 0026 C4F20003 		movt	r3, #:upper16:1073764463
 533 002a FA79     		ldrb	r2, [r7, #7]	@ zero_extendqisi2
 534 002c 4FEA1212 		lsr	r2, r2, #4
 535 0030 D2B2     		uxtb	r2, r2
 536 0032 1A70     		strb	r2, [r3, #0]
 484:.\Generated_Source\PSoC5/cyfitter_cfg.c **** 	CY_SET_XTND_REG8((void CYFAR *)CYREG_PRT0_AMUX, 0x04u);
 537              		.loc 1 484 0
 538 0034 45F20C13 		movw	r3, #:lower16:1073762572
ARM GAS  C:\Users\RAPHAE~1\AppData\Local\Temp\ccUOewk5.s 			page 19


 539 0038 C4F20003 		movt	r3, #:upper16:1073762572
 540 003c 4FF00402 		mov	r2, #4
 541 0040 1A70     		strb	r2, [r3, #0]
 485:.\Generated_Source\PSoC5/cyfitter_cfg.c **** 	CY_SET_XTND_REG8((void CYFAR *)CYREG_DAC0_SW3, 0x01u);
 542              		.loc 1 485 0
 543 0042 45F68323 		movw	r3, #:lower16:1073764995
 544 0046 C4F20003 		movt	r3, #:upper16:1073764995
 545 004a 4FF00102 		mov	r2, #1
 546 004e 1A70     		strb	r2, [r3, #0]
 486:.\Generated_Source\PSoC5/cyfitter_cfg.c **** 	CY_SET_XTND_REG8((void CYFAR *)CYREG_PUMP_CR0, 0x44u);
 547              		.loc 1 486 0
 548 0050 45F67603 		movw	r3, #:lower16:1073764470
 549 0054 C4F20003 		movt	r3, #:upper16:1073764470
 550 0058 4FF04402 		mov	r2, #68
 551 005c 1A70     		strb	r2, [r3, #0]
 487:.\Generated_Source\PSoC5/cyfitter_cfg.c **** }
 552              		.loc 1 487 0
 553 005e 07F10C07 		add	r7, r7, #12
 554 0062 BD46     		mov	sp, r7
 555 0064 80BC     		pop	{r7}
 556 0066 7047     		bx	lr
 557              		.cfi_endproc
 558              	.LFE5:
 559              		.size	AnalogSetDefault, .-AnalogSetDefault
 560              		.section	.text.SetAnalogRoutingPumps,"ax",%progbits
 561              		.align	2
 562              		.global	SetAnalogRoutingPumps
 563              		.thumb
 564              		.thumb_func
 565              		.type	SetAnalogRoutingPumps, %function
 566              	SetAnalogRoutingPumps:
 567              	.LFB6:
 488:.\Generated_Source\PSoC5/cyfitter_cfg.c **** 
 489:.\Generated_Source\PSoC5/cyfitter_cfg.c **** 
 490:.\Generated_Source\PSoC5/cyfitter_cfg.c **** /*******************************************************************************
 491:.\Generated_Source\PSoC5/cyfitter_cfg.c **** * Function Name: SetAnalogRoutingPumps
 492:.\Generated_Source\PSoC5/cyfitter_cfg.c **** ********************************************************************************
 493:.\Generated_Source\PSoC5/cyfitter_cfg.c **** *
 494:.\Generated_Source\PSoC5/cyfitter_cfg.c **** * Summary:
 495:.\Generated_Source\PSoC5/cyfitter_cfg.c **** * Enables or disables the analog pumps feeding analog routing switches.
 496:.\Generated_Source\PSoC5/cyfitter_cfg.c **** * Intended to be called at startup, based on the Vdda system configuration;
 497:.\Generated_Source\PSoC5/cyfitter_cfg.c **** * may be called during operation when the user informs us that the Vdda voltage
 498:.\Generated_Source\PSoC5/cyfitter_cfg.c **** * crossed the pump threshold.
 499:.\Generated_Source\PSoC5/cyfitter_cfg.c **** *
 500:.\Generated_Source\PSoC5/cyfitter_cfg.c **** * Parameters:
 501:.\Generated_Source\PSoC5/cyfitter_cfg.c **** *  enabled - 1 to enable the pumps, 0 to disable the pumps
 502:.\Generated_Source\PSoC5/cyfitter_cfg.c **** *
 503:.\Generated_Source\PSoC5/cyfitter_cfg.c **** * Return:
 504:.\Generated_Source\PSoC5/cyfitter_cfg.c **** *  void
 505:.\Generated_Source\PSoC5/cyfitter_cfg.c **** *
 506:.\Generated_Source\PSoC5/cyfitter_cfg.c **** *******************************************************************************/
 507:.\Generated_Source\PSoC5/cyfitter_cfg.c **** void SetAnalogRoutingPumps(uint8 enabled)
 508:.\Generated_Source\PSoC5/cyfitter_cfg.c **** {
 568              		.loc 1 508 0
 569              		.cfi_startproc
 570              		@ args = 0, pretend = 0, frame = 16
 571              		@ frame_needed = 1, uses_anonymous_args = 0
ARM GAS  C:\Users\RAPHAE~1\AppData\Local\Temp\ccUOewk5.s 			page 20


 572              		@ link register save eliminated.
 573 0000 80B4     		push	{r7}
 574              	.LCFI18:
 575              		.cfi_def_cfa_offset 4
 576 0002 85B0     		sub	sp, sp, #20
 577              	.LCFI19:
 578              		.cfi_def_cfa_offset 24
 579 0004 00AF     		add	r7, sp, #0
 580              		.cfi_offset 7, -4
 581              	.LCFI20:
 582              		.cfi_def_cfa_register 7
 583 0006 0346     		mov	r3, r0
 584 0008 FB71     		strb	r3, [r7, #7]
 509:.\Generated_Source\PSoC5/cyfitter_cfg.c **** 	uint8 regValue = CY_GET_XTND_REG8((void CYFAR *)CYREG_PUMP_CR0);
 585              		.loc 1 509 0
 586 000a 45F67603 		movw	r3, #:lower16:1073764470
 587 000e C4F20003 		movt	r3, #:upper16:1073764470
 588 0012 1B78     		ldrb	r3, [r3, #0]
 589 0014 FB73     		strb	r3, [r7, #15]
 510:.\Generated_Source\PSoC5/cyfitter_cfg.c **** 	if (enabled != 0u)
 590              		.loc 1 510 0
 591 0016 FB79     		ldrb	r3, [r7, #7]	@ zero_extendqisi2
 592 0018 002B     		cmp	r3, #0
 511:.\Generated_Source\PSoC5/cyfitter_cfg.c **** 	{
 512:.\Generated_Source\PSoC5/cyfitter_cfg.c **** 		regValue |= 0x00u;
 513:.\Generated_Source\PSoC5/cyfitter_cfg.c **** 	}
 514:.\Generated_Source\PSoC5/cyfitter_cfg.c **** 	else
 515:.\Generated_Source\PSoC5/cyfitter_cfg.c **** 	{
 516:.\Generated_Source\PSoC5/cyfitter_cfg.c **** 		regValue &= (uint8)~0x00u;
 517:.\Generated_Source\PSoC5/cyfitter_cfg.c **** 	}
 518:.\Generated_Source\PSoC5/cyfitter_cfg.c **** 	CY_SET_XTND_REG8((void CYFAR *)CYREG_PUMP_CR0, regValue);
 593              		.loc 1 518 0
 594 001a 45F67603 		movw	r3, #:lower16:1073764470
 595 001e C4F20003 		movt	r3, #:upper16:1073764470
 596 0022 FA7B     		ldrb	r2, [r7, #15]
 597 0024 1A70     		strb	r2, [r3, #0]
 519:.\Generated_Source\PSoC5/cyfitter_cfg.c **** }
 598              		.loc 1 519 0
 599 0026 07F11407 		add	r7, r7, #20
 600 002a BD46     		mov	sp, r7
 601 002c 80BC     		pop	{r7}
 602 002e 7047     		bx	lr
 603              		.cfi_endproc
 604              	.LFE6:
 605              		.size	SetAnalogRoutingPumps, .-SetAnalogRoutingPumps
 606              		.section	.text.cyfitter_cfg,"ax",%progbits
 607              		.align	2
 608              		.global	cyfitter_cfg
 609              		.thumb
 610              		.thumb_func
 611              		.type	cyfitter_cfg, %function
 612              	cyfitter_cfg:
 613              	.LFB7:
 520:.\Generated_Source\PSoC5/cyfitter_cfg.c **** 
 521:.\Generated_Source\PSoC5/cyfitter_cfg.c **** #define CY_AMUX_UNUSED CYREG_BOOST_SR
 522:.\Generated_Source\PSoC5/cyfitter_cfg.c **** 
 523:.\Generated_Source\PSoC5/cyfitter_cfg.c **** 
ARM GAS  C:\Users\RAPHAE~1\AppData\Local\Temp\ccUOewk5.s 			page 21


 524:.\Generated_Source\PSoC5/cyfitter_cfg.c **** /*******************************************************************************
 525:.\Generated_Source\PSoC5/cyfitter_cfg.c **** * Function Name: cyfitter_cfg
 526:.\Generated_Source\PSoC5/cyfitter_cfg.c **** ********************************************************************************
 527:.\Generated_Source\PSoC5/cyfitter_cfg.c **** * Summary:
 528:.\Generated_Source\PSoC5/cyfitter_cfg.c **** *  This function is called by the start-up code for the selected device. It
 529:.\Generated_Source\PSoC5/cyfitter_cfg.c **** *  performs all of the necessary device configuration based on the design
 530:.\Generated_Source\PSoC5/cyfitter_cfg.c **** *  settings.  This includes settings from the Design Wide Resources (DWR) such
 531:.\Generated_Source\PSoC5/cyfitter_cfg.c **** *  as Clocks and Pins as well as any component configuration that is necessary.
 532:.\Generated_Source\PSoC5/cyfitter_cfg.c **** *
 533:.\Generated_Source\PSoC5/cyfitter_cfg.c **** * Parameters:  
 534:.\Generated_Source\PSoC5/cyfitter_cfg.c **** *   void
 535:.\Generated_Source\PSoC5/cyfitter_cfg.c **** *
 536:.\Generated_Source\PSoC5/cyfitter_cfg.c **** * Return:
 537:.\Generated_Source\PSoC5/cyfitter_cfg.c **** *   void
 538:.\Generated_Source\PSoC5/cyfitter_cfg.c **** *
 539:.\Generated_Source\PSoC5/cyfitter_cfg.c **** *******************************************************************************/
 540:.\Generated_Source\PSoC5/cyfitter_cfg.c **** 
 541:.\Generated_Source\PSoC5/cyfitter_cfg.c **** void cyfitter_cfg(void)
 542:.\Generated_Source\PSoC5/cyfitter_cfg.c **** {
 614              		.loc 1 542 0
 615              		.cfi_startproc
 616              		@ args = 0, pretend = 0, frame = 0
 617              		@ frame_needed = 1, uses_anonymous_args = 0
 618 0000 80B5     		push	{r7, lr}
 619              	.LCFI21:
 620              		.cfi_def_cfa_offset 8
 621 0002 00AF     		add	r7, sp, #0
 622              		.cfi_offset 14, -4
 623              		.cfi_offset 7, -8
 624              	.LCFI22:
 625              		.cfi_def_cfa_register 7
 543:.\Generated_Source\PSoC5/cyfitter_cfg.c **** #ifdef CYGlobalIntDisable
 544:.\Generated_Source\PSoC5/cyfitter_cfg.c **** 	/* Disable interrupts by default. Let user enable if/when they want. */
 545:.\Generated_Source\PSoC5/cyfitter_cfg.c **** 	CYGlobalIntDisable
 626              		.loc 1 545 0
 627              	@ 545 ".\Generated_Source\PSoC5\cyfitter_cfg.c" 1
 628 0004 72B6     		CPSID   i
 629              	@ 0 "" 2
 546:.\Generated_Source\PSoC5/cyfitter_cfg.c **** #endif
 547:.\Generated_Source\PSoC5/cyfitter_cfg.c **** 
 548:.\Generated_Source\PSoC5/cyfitter_cfg.c **** 
 549:.\Generated_Source\PSoC5/cyfitter_cfg.c **** 	/* Set Flash Cycles based on max possible frequency in case a glitch occurs during ClockSetup(). *
 550:.\Generated_Source\PSoC5/cyfitter_cfg.c **** 	CY_SET_XTND_REG8((void CYFAR *)(CYREG_CACHE_CC_CTL), (((CYDEV_INSTRUCT_CACHE_ENABLED) != 0) ? 0x01
 630              		.loc 1 550 0
 631              		.thumb
 632 0006 44F60003 		movw	r3, #:lower16:1073760256
 633 000a C4F20003 		movt	r3, #:upper16:1073760256
 634 000e 4FF00002 		mov	r2, #0
 635 0012 1A70     		strb	r2, [r3, #0]
 551:.\Generated_Source\PSoC5/cyfitter_cfg.c **** 	/* Setup clocks based on selections from Clock DWR */
 552:.\Generated_Source\PSoC5/cyfitter_cfg.c **** 	ClockSetup();
 636              		.loc 1 552 0
 637 0014 FFF7FEFF 		bl	ClockSetup
 553:.\Generated_Source\PSoC5/cyfitter_cfg.c **** 	/* Enable/Disable Debug functionality based on settings from System DWR */
 554:.\Generated_Source\PSoC5/cyfitter_cfg.c **** 	CY_SET_XTND_REG8((void CYFAR *)CYREG_MLOGIC_DEBUG, (CY_GET_XTND_REG8((void CYFAR *)CYREG_MLOGIC_DE
 638              		.loc 1 554 0
 639 0018 44F2E863 		movw	r3, #:lower16:1073759976
ARM GAS  C:\Users\RAPHAE~1\AppData\Local\Temp\ccUOewk5.s 			page 22


 640 001c C4F20003 		movt	r3, #:upper16:1073759976
 641 0020 44F2E862 		movw	r2, #:lower16:1073759976
 642 0024 C4F20002 		movt	r2, #:upper16:1073759976
 643 0028 1278     		ldrb	r2, [r2, #0]
 644 002a D2B2     		uxtb	r2, r2
 645 002c 42F00402 		orr	r2, r2, #4
 646 0030 D2B2     		uxtb	r2, r2
 647 0032 1A70     		strb	r2, [r3, #0]
 555:.\Generated_Source\PSoC5/cyfitter_cfg.c **** 
 556:.\Generated_Source\PSoC5/cyfitter_cfg.c **** 	{
 557:.\Generated_Source\PSoC5/cyfitter_cfg.c **** 		cfg_dma_init();
 648              		.loc 1 557 0
 649 0034 FFF7FEFF 		bl	cfg_dma_init
 558:.\Generated_Source\PSoC5/cyfitter_cfg.c **** 
 559:.\Generated_Source\PSoC5/cyfitter_cfg.c **** 		/* Enable digital routing */
 560:.\Generated_Source\PSoC5/cyfitter_cfg.c **** 		CY_SET_XTND_REG8((void CYFAR *)CYREG_BCTL0_BANK_CTL, CY_GET_XTND_REG8((void CYFAR *)CYREG_BCTL0_B
 650              		.loc 1 560 0
 651 0038 45F20303 		movw	r3, #:lower16:1073827843
 652 003c C4F20103 		movt	r3, #:upper16:1073827843
 653 0040 45F20302 		movw	r2, #:lower16:1073827843
 654 0044 C4F20102 		movt	r2, #:upper16:1073827843
 655 0048 1278     		ldrb	r2, [r2, #0]
 656 004a D2B2     		uxtb	r2, r2
 657 004c 42F00202 		orr	r2, r2, #2
 658 0050 D2B2     		uxtb	r2, r2
 659 0052 1A70     		strb	r2, [r3, #0]
 561:.\Generated_Source\PSoC5/cyfitter_cfg.c **** 		CY_SET_XTND_REG8((void CYFAR *)CYREG_BCTL1_BANK_CTL, CY_GET_XTND_REG8((void CYFAR *)CYREG_BCTL1_B
 660              		.loc 1 561 0
 661 0054 45F21303 		movw	r3, #:lower16:1073827859
 662 0058 C4F20103 		movt	r3, #:upper16:1073827859
 663 005c 45F21302 		movw	r2, #:lower16:1073827859
 664 0060 C4F20102 		movt	r2, #:upper16:1073827859
 665 0064 1278     		ldrb	r2, [r2, #0]
 666 0066 D2B2     		uxtb	r2, r2
 667 0068 42F00202 		orr	r2, r2, #2
 668 006c D2B2     		uxtb	r2, r2
 669 006e 1A70     		strb	r2, [r3, #0]
 562:.\Generated_Source\PSoC5/cyfitter_cfg.c **** 
 563:.\Generated_Source\PSoC5/cyfitter_cfg.c **** 		/* Enable UDB array */
 564:.\Generated_Source\PSoC5/cyfitter_cfg.c **** 		CY_SET_XTND_REG8((void CYFAR *)CYREG_PM_ACT_CFG0, CY_GET_XTND_REG8((void CYFAR *)CYREG_PM_ACT_CFG
 670              		.loc 1 564 0
 671 0070 44F2A033 		movw	r3, #:lower16:1073759136
 672 0074 C4F20003 		movt	r3, #:upper16:1073759136
 673 0078 44F2A032 		movw	r2, #:lower16:1073759136
 674 007c C4F20002 		movt	r2, #:upper16:1073759136
 675 0080 1278     		ldrb	r2, [r2, #0]
 676 0082 D2B2     		uxtb	r2, r2
 677 0084 42F04002 		orr	r2, r2, #64
 678 0088 D2B2     		uxtb	r2, r2
 679 008a 1A70     		strb	r2, [r3, #0]
 565:.\Generated_Source\PSoC5/cyfitter_cfg.c **** 		CY_SET_XTND_REG8((void CYFAR *)CYREG_PM_AVAIL_CR2, CY_GET_XTND_REG8((void CYFAR *)CYREG_PM_AVAIL_
 680              		.loc 1 565 0
 681 008c 44F2C233 		movw	r3, #:lower16:1073759170
 682 0090 C4F20003 		movt	r3, #:upper16:1073759170
 683 0094 44F2C232 		movw	r2, #:lower16:1073759170
 684 0098 C4F20002 		movt	r2, #:upper16:1073759170
 685 009c 1278     		ldrb	r2, [r2, #0]
ARM GAS  C:\Users\RAPHAE~1\AppData\Local\Temp\ccUOewk5.s 			page 23


 686 009e D2B2     		uxtb	r2, r2
 687 00a0 42F01002 		orr	r2, r2, #16
 688 00a4 D2B2     		uxtb	r2, r2
 689 00a6 1A70     		strb	r2, [r3, #0]
 566:.\Generated_Source\PSoC5/cyfitter_cfg.c **** 	}
 567:.\Generated_Source\PSoC5/cyfitter_cfg.c **** 
 568:.\Generated_Source\PSoC5/cyfitter_cfg.c **** 	/* Perform second pass device configuration. These items must be configured in specific order afte
 569:.\Generated_Source\PSoC5/cyfitter_cfg.c **** 	CYCONFIGCPY((void CYFAR *)(CYREG_PRT0_DR), (const void CYFAR *)(BS_IOPINS0_0_VAL), 10u);
 690              		.loc 1 569 0
 691 00a8 45F20010 		movw	r0, #:lower16:1073762560
 692 00ac C4F20000 		movt	r0, #:upper16:1073762560
 693 00b0 40F64831 		movw	r1, #:lower16:1207962440
 694 00b4 C4F60001 		movt	r1, #:upper16:1207962440
 695 00b8 4FF00A02 		mov	r2, #10
 696 00bc FFF7FEFF 		bl	CYCONFIGCPY
 570:.\Generated_Source\PSoC5/cyfitter_cfg.c **** 	CYCONFIGCPY((void CYFAR *)(CYREG_PRT1_DM0), (const void CYFAR *)(BS_IOPINS0_1_VAL), 8u);
 697              		.loc 1 570 0
 698 00c0 45F21210 		movw	r0, #:lower16:1073762578
 699 00c4 C4F20000 		movt	r0, #:upper16:1073762578
 700 00c8 40F65431 		movw	r1, #:lower16:1207962452
 701 00cc C4F60001 		movt	r1, #:upper16:1207962452
 702 00d0 4FF00802 		mov	r2, #8
 703 00d4 FFF7FEFF 		bl	CYCONFIGCPY
 571:.\Generated_Source\PSoC5/cyfitter_cfg.c **** 
 572:.\Generated_Source\PSoC5/cyfitter_cfg.c **** 	/* Switch Boost to the precision bandgap reference from its internal reference */
 573:.\Generated_Source\PSoC5/cyfitter_cfg.c **** 	CY_SET_REG8((void CYXDATA *)CYDEV_BOOST_CR2, (CY_GET_REG8((void CYXDATA *)CYDEV_BOOST_CR2) | 0x08u
 704              		.loc 1 573 0
 705 00d8 44F22233 		movw	r3, #:lower16:1073759010
 706 00dc C4F20003 		movt	r3, #:upper16:1073759010
 707 00e0 44F22232 		movw	r2, #:lower16:1073759010
 708 00e4 C4F20002 		movt	r2, #:upper16:1073759010
 709 00e8 1278     		ldrb	r2, [r2, #0]
 710 00ea D2B2     		uxtb	r2, r2
 711 00ec 42F00802 		orr	r2, r2, #8
 712 00f0 D2B2     		uxtb	r2, r2
 713 00f2 1A70     		strb	r2, [r3, #0]
 574:.\Generated_Source\PSoC5/cyfitter_cfg.c **** 
 575:.\Generated_Source\PSoC5/cyfitter_cfg.c **** 	/* Perform basic analog initialization to defaults */
 576:.\Generated_Source\PSoC5/cyfitter_cfg.c **** 	AnalogSetDefault();
 714              		.loc 1 576 0
 715 00f4 FFF7FEFF 		bl	AnalogSetDefault
 577:.\Generated_Source\PSoC5/cyfitter_cfg.c **** 
 578:.\Generated_Source\PSoC5/cyfitter_cfg.c **** 	/* Configure alternate active mode */
 579:.\Generated_Source\PSoC5/cyfitter_cfg.c **** 	CYCONFIGCPY((void CYFAR *)CYDEV_PM_STBY_BASE, (const void CYFAR *)CYDEV_PM_ACT_BASE, 14u);
 716              		.loc 1 579 0
 717 00f8 44F2B030 		movw	r0, #:lower16:1073759152
 718 00fc C4F20000 		movt	r0, #:upper16:1073759152
 719 0100 44F2A031 		movw	r1, #:lower16:1073759136
 720 0104 C4F20001 		movt	r1, #:upper16:1073759136
 721 0108 4FF00E02 		mov	r2, #14
 722 010c FFF7FEFF 		bl	CYCONFIGCPY
 580:.\Generated_Source\PSoC5/cyfitter_cfg.c **** }
 723              		.loc 1 580 0
 724 0110 80BD     		pop	{r7, pc}
 725              		.cfi_endproc
 726              	.LFE7:
 727              		.size	cyfitter_cfg, .-cyfitter_cfg
ARM GAS  C:\Users\RAPHAE~1\AppData\Local\Temp\ccUOewk5.s 			page 24


 728 0112 00BF     		.bss
 729              		.align	3
 730              	DMA_ZERO_VAL.1986:
 731 0000 00000000 		.space	4
 732 0004 00000000 		.section	.dma_init,"a",%progbits
 733              		.align	2
 734              		.type	CFG_TD_LIST0.1987, %object
 735              		.size	CFG_TD_LIST0.1987, 376
 736              	CFG_TD_LIST0.1987:
 737 0000 0800     		.short	8
 738 0002 02       		.byte	2
 739 0003 23       		.byte	35
 740 0004 0000     		.short	0
 741 0006 0876     		.short	30216
 742 0008 0800     		.short	8
 743 000a 03       		.byte	3
 744 000b 23       		.byte	35
 745 000c 0000     		.short	0
 746 000e 1076     		.short	30224
 747 0010 0800     		.short	8
 748 0012 04       		.byte	4
 749 0013 23       		.byte	35
 750 0014 0000     		.short	0
 751 0016 2876     		.short	30248
 752 0018 0800     		.short	8
 753 001a 05       		.byte	5
 754 001b 23       		.byte	35
 755 001c 0000     		.short	0
 756 001e 3076     		.short	30256
 757 0020 0500     		.short	5
 758 0022 06       		.byte	6
 759 0023 23       		.byte	35
 760 0024 0000     		.short	0
 761 0026 2070     		.short	28704
 762 0028 0500     		.short	5
 763 002a 07       		.byte	7
 764 002b 23       		.byte	35
 765 002c 0000     		.short	0
 766 002e 3070     		.short	28720
 767 0030 0500     		.short	5
 768 0032 08       		.byte	8
 769 0033 23       		.byte	35
 770 0034 0000     		.short	0
 771 0036 6070     		.short	28768
 772 0038 0500     		.short	5
 773 003a FE       		.byte	-2
 774 003b 23       		.byte	35
 775 003c 0000     		.short	0
 776 003e 7070     		.short	28784
 777 0040 5000     		.short	80
 778 0042 0A       		.byte	10
 779 0043 22       		.byte	34
 780 0044 0000     		.short	0
 781 0046 2051     		.short	20768
 782 0048 1000     		.short	16
 783 004a 0B       		.byte	11
 784 004b 22       		.byte	34
ARM GAS  C:\Users\RAPHAE~1\AppData\Local\Temp\ccUOewk5.s 			page 25


 785 004c 0000     		.short	0
 786 004e C051     		.short	20928
 787 0050 1000     		.short	16
 788 0052 FE       		.byte	-2
 789 0053 22       		.byte	34
 790 0054 0000     		.short	0
 791 0056 F051     		.short	20976
 792 0058 0006     		.short	1536
 793 005a 0D       		.byte	13
 794 005b 22       		.byte	34
 795 005c 0000     		.short	0
 796 005e 0000     		.short	0
 797 0060 8000     		.short	128
 798 0062 0E       		.byte	14
 799 0063 22       		.byte	34
 800 0064 0000     		.short	0
 801 0066 8006     		.short	1664
 802 0068 0008     		.short	2048
 803 006a 0F       		.byte	15
 804 006b 22       		.byte	34
 805 006c 0000     		.short	0
 806 006e 0008     		.short	2048
 807 0070 8003     		.short	896
 808 0072 10       		.byte	16
 809 0073 22       		.byte	34
 810 0074 0000     		.short	0
 811 0076 0018     		.short	6144
 812 0078 0001     		.short	256
 813 007a 11       		.byte	17
 814 007b 22       		.byte	34
 815 007c 0000     		.short	0
 816 007e 0040     		.short	16384
 817 0080 8000     		.short	128
 818 0082 12       		.byte	18
 819 0083 22       		.byte	34
 820 0084 0000     		.short	0
 821 0086 0042     		.short	16896
 822 0088 8004     		.short	1152
 823 008a 13       		.byte	19
 824 008b 22       		.byte	34
 825 008c 0000     		.short	0
 826 008e 0044     		.short	17408
 827 0090 8000     		.short	128
 828 0092 14       		.byte	20
 829 0093 22       		.byte	34
 830 0094 0000     		.short	0
 831 0096 0049     		.short	18688
 832 0098 8000     		.short	128
 833 009a 15       		.byte	21
 834 009b 22       		.byte	34
 835 009c 0000     		.short	0
 836 009e 004D     		.short	19712
 837 00a0 1000     		.short	16
 838 00a2 FE       		.byte	-2
 839 00a3 22       		.byte	34
 840 00a4 0000     		.short	0
 841 00a6 0050     		.short	20480
ARM GAS  C:\Users\RAPHAE~1\AppData\Local\Temp\ccUOewk5.s 			page 26


 842 00a8 0C00     		.short	12
 843 00aa 17       		.byte	23
 844 00ab 23       		.byte	35
 845 00ac 0000     		.short	0
 846 00ae 004F     		.short	20224
 847 00b0 0C00     		.short	12
 848 00b2 18       		.byte	24
 849 00b3 23       		.byte	35
 850 00b4 0000     		.short	0
 851 00b6 0C4F     		.short	20236
 852 00b8 2000     		.short	32
 853 00ba FE       		.byte	-2
 854 00bb 23       		.byte	35
 855 00bc 0000     		.short	0
 856 00be 7065     		.short	25968
 857 00c0 8000     		.short	128
 858 00c2 1A       		.byte	26
 859 00c3 23       		.byte	35
 860 00c4 0000     		.short	0
 861 00c6 0006     		.short	1536
 862 00c8 8000     		.short	128
 863 00ca 1B       		.byte	27
 864 00cb 23       		.byte	35
 865 00cc 0000     		.short	0
 866 00ce 0014     		.short	5120
 867 00d0 8000     		.short	128
 868 00d2 1C       		.byte	28
 869 00d3 23       		.byte	35
 870 00d4 0000     		.short	0
 871 00d6 8014     		.short	5248
 872 00d8 8000     		.short	128
 873 00da 1D       		.byte	29
 874 00db 23       		.byte	35
 875 00dc 0000     		.short	0
 876 00de 0016     		.short	5632
 877 00e0 8000     		.short	128
 878 00e2 1E       		.byte	30
 879 00e3 23       		.byte	35
 880 00e4 0000     		.short	0
 881 00e6 8016     		.short	5760
 882 00e8 8000     		.short	128
 883 00ea 1F       		.byte	31
 884 00eb 23       		.byte	35
 885 00ec 0000     		.short	0
 886 00ee 804D     		.short	19840
 887 00f0 8000     		.short	128
 888 00f2 20       		.byte	32
 889 00f3 23       		.byte	35
 890 00f4 0000     		.short	0
 891 00f6 004C     		.short	19456
 892 00f8 8000     		.short	128
 893 00fa 21       		.byte	33
 894 00fb 23       		.byte	35
 895 00fc 0000     		.short	0
 896 00fe 804C     		.short	19584
 897 0100 8000     		.short	128
 898 0102 22       		.byte	34
ARM GAS  C:\Users\RAPHAE~1\AppData\Local\Temp\ccUOewk5.s 			page 27


 899 0103 23       		.byte	35
 900 0104 0000     		.short	0
 901 0106 801B     		.short	7040
 902 0108 8000     		.short	128
 903 010a 23       		.byte	35
 904 010b 23       		.byte	35
 905 010c 0000     		.short	0
 906 010e 0015     		.short	5376
 907 0110 8000     		.short	128
 908 0112 24       		.byte	36
 909 0113 23       		.byte	35
 910 0114 0000     		.short	0
 911 0116 8015     		.short	5504
 912 0118 8000     		.short	128
 913 011a 25       		.byte	37
 914 011b 23       		.byte	35
 915 011c 0000     		.short	0
 916 011e 0017     		.short	5888
 917 0120 8000     		.short	128
 918 0122 26       		.byte	38
 919 0123 23       		.byte	35
 920 0124 0000     		.short	0
 921 0126 8017     		.short	6016
 922 0128 8000     		.short	128
 923 012a 27       		.byte	39
 924 012b 23       		.byte	35
 925 012c 0000     		.short	0
 926 012e 0007     		.short	1792
 927 0130 8000     		.short	128
 928 0132 28       		.byte	40
 929 0133 23       		.byte	35
 930 0134 0000     		.short	0
 931 0136 8007     		.short	1920
 932 0138 8000     		.short	128
 933 013a 29       		.byte	41
 934 013b 23       		.byte	35
 935 013c 0000     		.short	0
 936 013e 8049     		.short	18816
 937 0140 8000     		.short	128
 938 0142 2A       		.byte	42
 939 0143 23       		.byte	35
 940 0144 0000     		.short	0
 941 0146 8048     		.short	18560
 942 0148 8000     		.short	128
 943 014a 2B       		.byte	43
 944 014b 23       		.byte	35
 945 014c 0000     		.short	0
 946 014e 0043     		.short	17152
 947 0150 8000     		.short	128
 948 0152 2C       		.byte	44
 949 0153 23       		.byte	35
 950 0154 0000     		.short	0
 951 0156 8043     		.short	17280
 952 0158 8000     		.short	128
 953 015a 2D       		.byte	45
 954 015b 23       		.byte	35
 955 015c 0000     		.short	0
ARM GAS  C:\Users\RAPHAE~1\AppData\Local\Temp\ccUOewk5.s 			page 28


 956 015e 8042     		.short	17024
 957 0160 8000     		.short	128
 958 0162 2E       		.byte	46
 959 0163 23       		.byte	35
 960 0164 0000     		.short	0
 961 0166 0041     		.short	16640
 962 0168 8000     		.short	128
 963 016a 2F       		.byte	47
 964 016b 23       		.byte	35
 965 016c 0000     		.short	0
 966 016e 8041     		.short	16768
 967 0170 1000     		.short	16
 968 0172 FE       		.byte	-2
 969 0173 23       		.byte	35
 970 0174 0000     		.short	0
 971 0176 1050     		.short	20496
 972              		.section	.rodata
 973              		.align	2
 974              		.type	CFG_TD_ADDR0.1988, %object
 975              		.size	CFG_TD_ADDR0.1988, 188
 976              	CFG_TD_ADDR0.1988:
 977 0000 98010000 		.word	CH1_ADDR_DATA0.1981
 978 0004 90010000 		.word	CH2_ADDR_DATA0.1982
 979 0008 88010000 		.word	CH5_ADDR_DATA0.1983
 980 000c 80010000 		.word	CH6_ADDR_DATA0.1984
 981 0010 78010000 		.word	DMA_TD_START_CMD.1985
 982 0014 78010000 		.word	DMA_TD_START_CMD.1985
 983 0018 78010000 		.word	DMA_TD_START_CMD.1985
 984 001c 78010000 		.word	DMA_TD_START_CMD.1985
 985 0020 00000000 		.word	DMA_ZERO_VAL.1986
 986 0024 00000000 		.word	DMA_ZERO_VAL.1986
 987 0028 00000000 		.word	DMA_ZERO_VAL.1986
 988 002c 00000000 		.word	DMA_ZERO_VAL.1986
 989 0030 00000000 		.word	DMA_ZERO_VAL.1986
 990 0034 00000000 		.word	DMA_ZERO_VAL.1986
 991 0038 00000000 		.word	DMA_ZERO_VAL.1986
 992 003c 00000000 		.word	DMA_ZERO_VAL.1986
 993 0040 00000000 		.word	DMA_ZERO_VAL.1986
 994 0044 00000000 		.word	DMA_ZERO_VAL.1986
 995 0048 00000000 		.word	DMA_ZERO_VAL.1986
 996 004c 00000000 		.word	DMA_ZERO_VAL.1986
 997 0050 00000000 		.word	DMA_ZERO_VAL.1986
 998 0054 00000048 		.word	1207959552
 999 0058 0C000048 		.word	1207959564
 1000 005c 98020048 		.word	1207960216
 1001 0060 18000048 		.word	1207959576
 1002 0064 98000048 		.word	1207959704
 1003 0068 18010048 		.word	1207959832
 1004 006c 98010048 		.word	1207959960
 1005 0070 18020048 		.word	1207960088
 1006 0074 B8020048 		.word	1207960248
 1007 0078 38030048 		.word	1207960376
 1008 007c B8030048 		.word	1207960504
 1009 0080 38040048 		.word	1207960632
 1010 0084 B8040048 		.word	1207960760
 1011 0088 38050048 		.word	1207960888
 1012 008c B8050048 		.word	1207961016
ARM GAS  C:\Users\RAPHAE~1\AppData\Local\Temp\ccUOewk5.s 			page 29


 1013 0090 38060048 		.word	1207961144
 1014 0094 B8060048 		.word	1207961272
 1015 0098 38070048 		.word	1207961400
 1016 009c B8070048 		.word	1207961528
 1017 00a0 38080048 		.word	1207961656
 1018 00a4 B8080048 		.word	1207961784
 1019 00a8 38090048 		.word	1207961912
 1020 00ac B8090048 		.word	1207962040
 1021 00b0 380A0048 		.word	1207962168
 1022 00b4 B80A0048 		.word	1207962296
 1023 00b8 380B0048 		.word	1207962424
 1024              		.section	.dma_init
 1025              		.align	2
 1026              		.type	DMA_TD_START_CMD.1985, %object
 1027              		.size	DMA_TD_START_CMD.1985, 5
 1028              	DMA_TD_START_CMD.1985:
 1029 0178 01       		.byte	1
 1030 0179 00       		.byte	0
 1031 017a 00       		.byte	0
 1032 017b 00       		.byte	0
 1033 017c 01       		.byte	1
 1034 017d 000000   		.align	2
 1035              		.type	CH6_ADDR_DATA0.1984, %object
 1036              		.size	CH6_ADDR_DATA0.1984, 8
 1037              	CH6_ADDR_DATA0.1984:
 1038 0180 01       		.byte	1
 1039 0181 00       		.byte	0
 1040 0182 00       		.byte	0
 1041 0183 00       		.byte	0
 1042 0184 00       		.byte	0
 1043 0185 48       		.byte	72
 1044 0186 01       		.byte	1
 1045 0187 40       		.byte	64
 1046              		.align	2
 1047              		.type	CH5_ADDR_DATA0.1983, %object
 1048              		.size	CH5_ADDR_DATA0.1983, 8
 1049              	CH5_ADDR_DATA0.1983:
 1050 0188 01       		.byte	1
 1051 0189 00       		.byte	0
 1052 018a 00       		.byte	0
 1053 018b 00       		.byte	0
 1054 018c 00       		.byte	0
 1055 018d 48       		.byte	72
 1056 018e 00       		.byte	0
 1057 018f 40       		.byte	64
 1058              		.align	2
 1059              		.type	CH2_ADDR_DATA0.1982, %object
 1060              		.size	CH2_ADDR_DATA0.1982, 8
 1061              	CH2_ADDR_DATA0.1982:
 1062 0190 01       		.byte	1
 1063 0191 00       		.byte	0
 1064 0192 00       		.byte	0
 1065 0193 00       		.byte	0
 1066 0194 00       		.byte	0
 1067 0195 20       		.byte	32
 1068 0196 01       		.byte	1
 1069 0197 40       		.byte	64
ARM GAS  C:\Users\RAPHAE~1\AppData\Local\Temp\ccUOewk5.s 			page 30


 1070              		.align	2
 1071              		.type	CH1_ADDR_DATA0.1981, %object
 1072              		.size	CH1_ADDR_DATA0.1981, 8
 1073              	CH1_ADDR_DATA0.1981:
 1074 0198 01       		.byte	1
 1075 0199 00       		.byte	0
 1076 019a 00       		.byte	0
 1077 019b 00       		.byte	0
 1078 019c 00       		.byte	0
 1079 019d 20       		.byte	32
 1080 019e 00       		.byte	0
 1081 019f 40       		.byte	64
 1082              		.text
 1083              	.Letext0: