ARM GAS  C:\Users\RAPHAE~1\AppData\Local\Temp\cci4gtaY.s 			page 1


   1              		.syntax unified
   2              		.cpu cortex-m3
   3              		.fpu softvfp
   4              		.eabi_attribute 20, 1
   5              		.eabi_attribute 21, 1
   6              		.eabi_attribute 23, 3
   7              		.eabi_attribute 24, 1
   8              		.eabi_attribute 25, 1
   9              		.eabi_attribute 26, 1
  10              		.eabi_attribute 30, 6
  11              		.eabi_attribute 18, 4
  12              		.thumb
  13              		.file	"VDAC8_1.c"
  20 0000 0A010000 		.text
  20      02006000 
  20      00000201 
  20      FB0E0D00 
  20      01010101 
  21              	.Ltext0:
  22              		.cfi_sections	.debug_frame
  23              		.global	VDAC8_1_initVar
  24              		.bss
  25              		.type	VDAC8_1_initVar, %object
  26              		.size	VDAC8_1_initVar, 1
  27              	VDAC8_1_initVar:
  28 0000 00       		.space	1
  29              		.section	.text.VDAC8_1_Init,"ax",%progbits
  30              		.align	2
  31              		.global	VDAC8_1_Init
  32              		.thumb
  33              		.thumb_func
  34              		.type	VDAC8_1_Init, %function
  35              	VDAC8_1_Init:
  36              	.LFB0:
  37              		.file 1 ".\\Generated_Source\\PSoC5\\VDAC8_1.c"
   1:.\Generated_Source\PSoC5/VDAC8_1.c **** /*******************************************************************************
   2:.\Generated_Source\PSoC5/VDAC8_1.c **** * File Name: VDAC8_1.c  
   3:.\Generated_Source\PSoC5/VDAC8_1.c **** * Version 1.90
   4:.\Generated_Source\PSoC5/VDAC8_1.c **** *
   5:.\Generated_Source\PSoC5/VDAC8_1.c **** * Description:
   6:.\Generated_Source\PSoC5/VDAC8_1.c **** *  This file provides the source code to the API for the 8-bit Voltage DAC 
   7:.\Generated_Source\PSoC5/VDAC8_1.c **** *  (VDAC8) User Module.
   8:.\Generated_Source\PSoC5/VDAC8_1.c **** *
   9:.\Generated_Source\PSoC5/VDAC8_1.c **** * Note:
  10:.\Generated_Source\PSoC5/VDAC8_1.c **** *  Any unusual or non-standard behavior should be noted here. Other-
  11:.\Generated_Source\PSoC5/VDAC8_1.c **** *  wise, this section should remain blank.
  12:.\Generated_Source\PSoC5/VDAC8_1.c **** *
  13:.\Generated_Source\PSoC5/VDAC8_1.c **** ********************************************************************************
  14:.\Generated_Source\PSoC5/VDAC8_1.c **** * Copyright 2008-2012, Cypress Semiconductor Corporation.  All rights reserved.
  15:.\Generated_Source\PSoC5/VDAC8_1.c **** * You may use this file only in accordance with the license, terms, conditions, 
  16:.\Generated_Source\PSoC5/VDAC8_1.c **** * disclaimers, and limitations in the end user license agreement accompanying 
ARM GAS  C:\Users\RAPHAE~1\AppData\Local\Temp\cci4gtaY.s 			page 2


  17:.\Generated_Source\PSoC5/VDAC8_1.c **** * the software package with which this file was provided.
  18:.\Generated_Source\PSoC5/VDAC8_1.c **** *******************************************************************************/
  19:.\Generated_Source\PSoC5/VDAC8_1.c **** 
  20:.\Generated_Source\PSoC5/VDAC8_1.c **** #include "cytypes.h"
  21:.\Generated_Source\PSoC5/VDAC8_1.c **** #include "VDAC8_1.h"
  22:.\Generated_Source\PSoC5/VDAC8_1.c **** 
  23:.\Generated_Source\PSoC5/VDAC8_1.c **** #if (CY_PSOC5A)
  24:.\Generated_Source\PSoC5/VDAC8_1.c **** #include <CyLib.h>
  25:.\Generated_Source\PSoC5/VDAC8_1.c **** #endif /* CY_PSOC5A */
  26:.\Generated_Source\PSoC5/VDAC8_1.c **** 
  27:.\Generated_Source\PSoC5/VDAC8_1.c **** uint8 VDAC8_1_initVar = 0u;
  28:.\Generated_Source\PSoC5/VDAC8_1.c **** 
  29:.\Generated_Source\PSoC5/VDAC8_1.c **** #if (CY_PSOC5A)
  30:.\Generated_Source\PSoC5/VDAC8_1.c ****     static uint8 VDAC8_1_restoreVal = 0u;
  31:.\Generated_Source\PSoC5/VDAC8_1.c **** #endif /* CY_PSOC5A */
  32:.\Generated_Source\PSoC5/VDAC8_1.c **** 
  33:.\Generated_Source\PSoC5/VDAC8_1.c **** #if (CY_PSOC5A)
  34:.\Generated_Source\PSoC5/VDAC8_1.c ****     static VDAC8_1_backupStruct VDAC8_1_backup;
  35:.\Generated_Source\PSoC5/VDAC8_1.c **** #endif /* CY_PSOC5A */
  36:.\Generated_Source\PSoC5/VDAC8_1.c **** 
  37:.\Generated_Source\PSoC5/VDAC8_1.c **** 
  38:.\Generated_Source\PSoC5/VDAC8_1.c **** /*******************************************************************************
  39:.\Generated_Source\PSoC5/VDAC8_1.c **** * Function Name: VDAC8_1_Init
  40:.\Generated_Source\PSoC5/VDAC8_1.c **** ********************************************************************************
  41:.\Generated_Source\PSoC5/VDAC8_1.c **** * Summary:
  42:.\Generated_Source\PSoC5/VDAC8_1.c **** *  Initialize to the schematic state.
  43:.\Generated_Source\PSoC5/VDAC8_1.c **** * 
  44:.\Generated_Source\PSoC5/VDAC8_1.c **** * Parameters:
  45:.\Generated_Source\PSoC5/VDAC8_1.c **** *  void:
  46:.\Generated_Source\PSoC5/VDAC8_1.c **** *
  47:.\Generated_Source\PSoC5/VDAC8_1.c **** * Return:
  48:.\Generated_Source\PSoC5/VDAC8_1.c **** *  void
  49:.\Generated_Source\PSoC5/VDAC8_1.c **** *
  50:.\Generated_Source\PSoC5/VDAC8_1.c **** * Theory:
  51:.\Generated_Source\PSoC5/VDAC8_1.c **** *
  52:.\Generated_Source\PSoC5/VDAC8_1.c **** * Side Effects:
  53:.\Generated_Source\PSoC5/VDAC8_1.c **** *
  54:.\Generated_Source\PSoC5/VDAC8_1.c **** *******************************************************************************/
  55:.\Generated_Source\PSoC5/VDAC8_1.c **** void VDAC8_1_Init(void) 
  56:.\Generated_Source\PSoC5/VDAC8_1.c **** {
  38              		.loc 1 56 0
  39              		.cfi_startproc
  40              		@ args = 0, pretend = 0, frame = 0
  41              		@ frame_needed = 1, uses_anonymous_args = 0
  42 0000 80B5     		push	{r7, lr}
  43              	.LCFI0:
  44              		.cfi_def_cfa_offset 8
  45 0002 00AF     		add	r7, sp, #0
  46              		.cfi_offset 14, -4
  47              		.cfi_offset 7, -8
  48              	.LCFI1:
  49              		.cfi_def_cfa_register 7
  57:.\Generated_Source\PSoC5/VDAC8_1.c ****     VDAC8_1_CR0 = (VDAC8_1_MODE_V );
  50              		.loc 1 57 0
  51 0004 45F62003 		movw	r3, #:lower16:1073764384
  52 0008 C4F20003 		movt	r3, #:upper16:1073764384
  53 000c 4FF00002 		mov	r2, #0
ARM GAS  C:\Users\RAPHAE~1\AppData\Local\Temp\cci4gtaY.s 			page 3


  54 0010 1A70     		strb	r2, [r3, #0]
  58:.\Generated_Source\PSoC5/VDAC8_1.c **** 
  59:.\Generated_Source\PSoC5/VDAC8_1.c ****     /* Set default data source */
  60:.\Generated_Source\PSoC5/VDAC8_1.c ****     #if(VDAC8_1_DEFAULT_DATA_SRC != 0 )
  61:.\Generated_Source\PSoC5/VDAC8_1.c ****         VDAC8_1_CR1 = (VDAC8_1_DEFAULT_CNTL | VDAC8_1_DACBUS_ENABLE) ;
  62:.\Generated_Source\PSoC5/VDAC8_1.c ****     #else
  63:.\Generated_Source\PSoC5/VDAC8_1.c ****         VDAC8_1_CR1 = (VDAC8_1_DEFAULT_CNTL | VDAC8_1_DACBUS_DISABLE) ;
  55              		.loc 1 63 0
  56 0012 45F62103 		movw	r3, #:lower16:1073764385
  57 0016 C4F20003 		movt	r3, #:upper16:1073764385
  58 001a 4FF00002 		mov	r2, #0
  59 001e 1A70     		strb	r2, [r3, #0]
  64:.\Generated_Source\PSoC5/VDAC8_1.c ****     #endif /* (VDAC8_1_DEFAULT_DATA_SRC != 0 ) */
  65:.\Generated_Source\PSoC5/VDAC8_1.c **** 
  66:.\Generated_Source\PSoC5/VDAC8_1.c ****     /* Set default strobe mode */
  67:.\Generated_Source\PSoC5/VDAC8_1.c ****     #if(VDAC8_1_DEFAULT_STRB != 0)
  68:.\Generated_Source\PSoC5/VDAC8_1.c ****         VDAC8_1_Strobe |= VDAC8_1_STRB_EN ;
  69:.\Generated_Source\PSoC5/VDAC8_1.c ****     #endif/* (VDAC8_1_DEFAULT_STRB != 0) */
  70:.\Generated_Source\PSoC5/VDAC8_1.c **** 
  71:.\Generated_Source\PSoC5/VDAC8_1.c ****     /* Set default range */
  72:.\Generated_Source\PSoC5/VDAC8_1.c ****     VDAC8_1_SetRange(VDAC8_1_DEFAULT_RANGE); 
  60              		.loc 1 72 0
  61 0020 4FF00000 		mov	r0, #0
  62 0024 FFF7FEFF 		bl	VDAC8_1_SetRange
  73:.\Generated_Source\PSoC5/VDAC8_1.c **** 
  74:.\Generated_Source\PSoC5/VDAC8_1.c ****     /* Set default speed */
  75:.\Generated_Source\PSoC5/VDAC8_1.c ****     VDAC8_1_SetSpeed(VDAC8_1_DEFAULT_SPEED);
  63              		.loc 1 75 0
  64 0028 4FF00200 		mov	r0, #2
  65 002c FFF7FEFF 		bl	VDAC8_1_SetSpeed
  76:.\Generated_Source\PSoC5/VDAC8_1.c **** }
  66              		.loc 1 76 0
  67 0030 80BD     		pop	{r7, pc}
  68              		.cfi_endproc
  69              	.LFE0:
  70              		.size	VDAC8_1_Init, .-VDAC8_1_Init
  71 0032 00BF     		.section	.text.VDAC8_1_Enable,"ax",%progbits
  72              		.align	2
  73              		.global	VDAC8_1_Enable
  74              		.thumb
  75              		.thumb_func
  76              		.type	VDAC8_1_Enable, %function
  77              	VDAC8_1_Enable:
  78              	.LFB1:
  77:.\Generated_Source\PSoC5/VDAC8_1.c **** 
  78:.\Generated_Source\PSoC5/VDAC8_1.c **** 
  79:.\Generated_Source\PSoC5/VDAC8_1.c **** /*******************************************************************************
  80:.\Generated_Source\PSoC5/VDAC8_1.c **** * Function Name: VDAC8_1_Enable
  81:.\Generated_Source\PSoC5/VDAC8_1.c **** ********************************************************************************
  82:.\Generated_Source\PSoC5/VDAC8_1.c **** * Summary:
  83:.\Generated_Source\PSoC5/VDAC8_1.c **** *  Enable the VDAC8
  84:.\Generated_Source\PSoC5/VDAC8_1.c **** * 
  85:.\Generated_Source\PSoC5/VDAC8_1.c **** * Parameters:
  86:.\Generated_Source\PSoC5/VDAC8_1.c **** *  void
  87:.\Generated_Source\PSoC5/VDAC8_1.c **** *
  88:.\Generated_Source\PSoC5/VDAC8_1.c **** * Return:
  89:.\Generated_Source\PSoC5/VDAC8_1.c **** *  void
ARM GAS  C:\Users\RAPHAE~1\AppData\Local\Temp\cci4gtaY.s 			page 4


  90:.\Generated_Source\PSoC5/VDAC8_1.c **** *
  91:.\Generated_Source\PSoC5/VDAC8_1.c **** * Theory:
  92:.\Generated_Source\PSoC5/VDAC8_1.c **** *
  93:.\Generated_Source\PSoC5/VDAC8_1.c **** * Side Effects:
  94:.\Generated_Source\PSoC5/VDAC8_1.c **** *
  95:.\Generated_Source\PSoC5/VDAC8_1.c **** *******************************************************************************/
  96:.\Generated_Source\PSoC5/VDAC8_1.c **** void VDAC8_1_Enable(void) 
  97:.\Generated_Source\PSoC5/VDAC8_1.c **** {
  79              		.loc 1 97 0
  80              		.cfi_startproc
  81              		@ args = 0, pretend = 0, frame = 0
  82              		@ frame_needed = 1, uses_anonymous_args = 0
  83              		@ link register save eliminated.
  84 0000 80B4     		push	{r7}
  85              	.LCFI2:
  86              		.cfi_def_cfa_offset 4
  87 0002 00AF     		add	r7, sp, #0
  88              		.cfi_offset 7, -4
  89              	.LCFI3:
  90              		.cfi_def_cfa_register 7
  98:.\Generated_Source\PSoC5/VDAC8_1.c ****     VDAC8_1_PWRMGR |= VDAC8_1_ACT_PWR_EN;
  91              		.loc 1 98 0
  92 0004 44F2A833 		movw	r3, #:lower16:1073759144
  93 0008 C4F20003 		movt	r3, #:upper16:1073759144
  94 000c 44F2A832 		movw	r2, #:lower16:1073759144
  95 0010 C4F20002 		movt	r2, #:upper16:1073759144
  96 0014 1278     		ldrb	r2, [r2, #0]
  97 0016 D2B2     		uxtb	r2, r2
  98 0018 42F00102 		orr	r2, r2, #1
  99 001c D2B2     		uxtb	r2, r2
 100 001e 1A70     		strb	r2, [r3, #0]
  99:.\Generated_Source\PSoC5/VDAC8_1.c ****     VDAC8_1_STBY_PWRMGR |= VDAC8_1_STBY_PWR_EN;
 101              		.loc 1 99 0
 102 0020 44F2B833 		movw	r3, #:lower16:1073759160
 103 0024 C4F20003 		movt	r3, #:upper16:1073759160
 104 0028 44F2B832 		movw	r2, #:lower16:1073759160
 105 002c C4F20002 		movt	r2, #:upper16:1073759160
 106 0030 1278     		ldrb	r2, [r2, #0]
 107 0032 D2B2     		uxtb	r2, r2
 108 0034 42F00102 		orr	r2, r2, #1
 109 0038 D2B2     		uxtb	r2, r2
 110 003a 1A70     		strb	r2, [r3, #0]
 100:.\Generated_Source\PSoC5/VDAC8_1.c **** 
 101:.\Generated_Source\PSoC5/VDAC8_1.c ****     /*This is to restore the value of register CR0 ,
 102:.\Generated_Source\PSoC5/VDAC8_1.c ****     which is modified  in Stop API , this prevents misbehaviour of VDAC */
 103:.\Generated_Source\PSoC5/VDAC8_1.c ****     #if (CY_PSOC5A)
 104:.\Generated_Source\PSoC5/VDAC8_1.c ****         if(VDAC8_1_restoreVal == 1u) 
 105:.\Generated_Source\PSoC5/VDAC8_1.c ****         {
 106:.\Generated_Source\PSoC5/VDAC8_1.c ****              VDAC8_1_CR0 = VDAC8_1_backup.data_value;
 107:.\Generated_Source\PSoC5/VDAC8_1.c ****              VDAC8_1_restoreVal = 0u;
 108:.\Generated_Source\PSoC5/VDAC8_1.c ****         }
 109:.\Generated_Source\PSoC5/VDAC8_1.c ****     #endif /* CY_PSOC5A */
 110:.\Generated_Source\PSoC5/VDAC8_1.c **** }
 111              		.loc 1 110 0
 112 003c BD46     		mov	sp, r7
 113 003e 80BC     		pop	{r7}
 114 0040 7047     		bx	lr
ARM GAS  C:\Users\RAPHAE~1\AppData\Local\Temp\cci4gtaY.s 			page 5


 115              		.cfi_endproc
 116              	.LFE1:
 117              		.size	VDAC8_1_Enable, .-VDAC8_1_Enable
 118 0042 00BF     		.section	.text.VDAC8_1_Start,"ax",%progbits
 119              		.align	2
 120              		.global	VDAC8_1_Start
 121              		.thumb
 122              		.thumb_func
 123              		.type	VDAC8_1_Start, %function
 124              	VDAC8_1_Start:
 125              	.LFB2:
 111:.\Generated_Source\PSoC5/VDAC8_1.c **** 
 112:.\Generated_Source\PSoC5/VDAC8_1.c **** 
 113:.\Generated_Source\PSoC5/VDAC8_1.c **** /*******************************************************************************
 114:.\Generated_Source\PSoC5/VDAC8_1.c **** * Function Name: VDAC8_1_Start
 115:.\Generated_Source\PSoC5/VDAC8_1.c **** ********************************************************************************
 116:.\Generated_Source\PSoC5/VDAC8_1.c **** *
 117:.\Generated_Source\PSoC5/VDAC8_1.c **** * Summary:
 118:.\Generated_Source\PSoC5/VDAC8_1.c **** *  The start function initializes the voltage DAC with the default values, 
 119:.\Generated_Source\PSoC5/VDAC8_1.c **** *  and sets the power to the given level.  A power level of 0, is the same as
 120:.\Generated_Source\PSoC5/VDAC8_1.c **** *  executing the stop function.
 121:.\Generated_Source\PSoC5/VDAC8_1.c **** *
 122:.\Generated_Source\PSoC5/VDAC8_1.c **** * Parameters:
 123:.\Generated_Source\PSoC5/VDAC8_1.c **** *  Power: Sets power level between off (0) and (3) high power
 124:.\Generated_Source\PSoC5/VDAC8_1.c **** *
 125:.\Generated_Source\PSoC5/VDAC8_1.c **** * Return:
 126:.\Generated_Source\PSoC5/VDAC8_1.c **** *  void 
 127:.\Generated_Source\PSoC5/VDAC8_1.c **** *
 128:.\Generated_Source\PSoC5/VDAC8_1.c **** * Global variables:
 129:.\Generated_Source\PSoC5/VDAC8_1.c **** *  VDAC8_1_initVar: Is modified when this function is called for the 
 130:.\Generated_Source\PSoC5/VDAC8_1.c **** *  first time. Is used to ensure that initialization happens only once.
 131:.\Generated_Source\PSoC5/VDAC8_1.c **** *
 132:.\Generated_Source\PSoC5/VDAC8_1.c **** *******************************************************************************/
 133:.\Generated_Source\PSoC5/VDAC8_1.c **** void VDAC8_1_Start(void)  
 134:.\Generated_Source\PSoC5/VDAC8_1.c **** {
 126              		.loc 1 134 0
 127              		.cfi_startproc
 128              		@ args = 0, pretend = 0, frame = 0
 129              		@ frame_needed = 1, uses_anonymous_args = 0
 130 0000 80B5     		push	{r7, lr}
 131              	.LCFI4:
 132              		.cfi_def_cfa_offset 8
 133 0002 00AF     		add	r7, sp, #0
 134              		.cfi_offset 14, -4
 135              		.cfi_offset 7, -8
 136              	.LCFI5:
 137              		.cfi_def_cfa_register 7
 135:.\Generated_Source\PSoC5/VDAC8_1.c ****     /* Hardware initiazation only needs to occure the first time */
 136:.\Generated_Source\PSoC5/VDAC8_1.c ****     if(VDAC8_1_initVar == 0u)
 138              		.loc 1 136 0
 139 0004 40F20003 		movw	r3, #:lower16:VDAC8_1_initVar
 140 0008 C0F20003 		movt	r3, #:upper16:VDAC8_1_initVar
 141 000c 1B78     		ldrb	r3, [r3, #0]	@ zero_extendqisi2
 142 000e 002B     		cmp	r3, #0
 143 0010 08D1     		bne	.L6
 137:.\Generated_Source\PSoC5/VDAC8_1.c ****     { 
 138:.\Generated_Source\PSoC5/VDAC8_1.c ****         VDAC8_1_Init();
ARM GAS  C:\Users\RAPHAE~1\AppData\Local\Temp\cci4gtaY.s 			page 6


 144              		.loc 1 138 0
 145 0012 FFF7FEFF 		bl	VDAC8_1_Init
 139:.\Generated_Source\PSoC5/VDAC8_1.c ****         VDAC8_1_initVar = 1u;
 146              		.loc 1 139 0
 147 0016 40F20003 		movw	r3, #:lower16:VDAC8_1_initVar
 148 001a C0F20003 		movt	r3, #:upper16:VDAC8_1_initVar
 149 001e 4FF00102 		mov	r2, #1
 150 0022 1A70     		strb	r2, [r3, #0]
 151              	.L6:
 140:.\Generated_Source\PSoC5/VDAC8_1.c ****     }
 141:.\Generated_Source\PSoC5/VDAC8_1.c **** 
 142:.\Generated_Source\PSoC5/VDAC8_1.c ****     /* Enable power to DAC */
 143:.\Generated_Source\PSoC5/VDAC8_1.c ****     VDAC8_1_Enable();
 152              		.loc 1 143 0
 153 0024 FFF7FEFF 		bl	VDAC8_1_Enable
 144:.\Generated_Source\PSoC5/VDAC8_1.c **** 
 145:.\Generated_Source\PSoC5/VDAC8_1.c ****     /* Set default value */
 146:.\Generated_Source\PSoC5/VDAC8_1.c ****     VDAC8_1_SetValue(VDAC8_1_DEFAULT_DATA); 
 154              		.loc 1 146 0
 155 0028 4FF06400 		mov	r0, #100
 156 002c FFF7FEFF 		bl	VDAC8_1_SetValue
 147:.\Generated_Source\PSoC5/VDAC8_1.c **** }
 157              		.loc 1 147 0
 158 0030 80BD     		pop	{r7, pc}
 159              		.cfi_endproc
 160              	.LFE2:
 161              		.size	VDAC8_1_Start, .-VDAC8_1_Start
 162 0032 00BF     		.section	.text.VDAC8_1_Stop,"ax",%progbits
 163              		.align	2
 164              		.global	VDAC8_1_Stop
 165              		.thumb
 166              		.thumb_func
 167              		.type	VDAC8_1_Stop, %function
 168              	VDAC8_1_Stop:
 169              	.LFB3:
 148:.\Generated_Source\PSoC5/VDAC8_1.c **** 
 149:.\Generated_Source\PSoC5/VDAC8_1.c **** 
 150:.\Generated_Source\PSoC5/VDAC8_1.c **** /*******************************************************************************
 151:.\Generated_Source\PSoC5/VDAC8_1.c **** * Function Name: VDAC8_1_Stop
 152:.\Generated_Source\PSoC5/VDAC8_1.c **** ********************************************************************************
 153:.\Generated_Source\PSoC5/VDAC8_1.c **** *
 154:.\Generated_Source\PSoC5/VDAC8_1.c **** * Summary:
 155:.\Generated_Source\PSoC5/VDAC8_1.c **** *  Powers down DAC to lowest power state.
 156:.\Generated_Source\PSoC5/VDAC8_1.c **** *
 157:.\Generated_Source\PSoC5/VDAC8_1.c **** * Parameters:
 158:.\Generated_Source\PSoC5/VDAC8_1.c **** *  void
 159:.\Generated_Source\PSoC5/VDAC8_1.c **** *
 160:.\Generated_Source\PSoC5/VDAC8_1.c **** * Return:
 161:.\Generated_Source\PSoC5/VDAC8_1.c **** *  void
 162:.\Generated_Source\PSoC5/VDAC8_1.c **** *
 163:.\Generated_Source\PSoC5/VDAC8_1.c **** * Theory:
 164:.\Generated_Source\PSoC5/VDAC8_1.c **** *
 165:.\Generated_Source\PSoC5/VDAC8_1.c **** * Side Effects:
 166:.\Generated_Source\PSoC5/VDAC8_1.c **** *
 167:.\Generated_Source\PSoC5/VDAC8_1.c **** *******************************************************************************/
 168:.\Generated_Source\PSoC5/VDAC8_1.c **** void VDAC8_1_Stop(void) 
 169:.\Generated_Source\PSoC5/VDAC8_1.c **** {
ARM GAS  C:\Users\RAPHAE~1\AppData\Local\Temp\cci4gtaY.s 			page 7


 170              		.loc 1 169 0
 171              		.cfi_startproc
 172              		@ args = 0, pretend = 0, frame = 0
 173              		@ frame_needed = 1, uses_anonymous_args = 0
 174              		@ link register save eliminated.
 175 0000 80B4     		push	{r7}
 176              	.LCFI6:
 177              		.cfi_def_cfa_offset 4
 178 0002 00AF     		add	r7, sp, #0
 179              		.cfi_offset 7, -4
 180              	.LCFI7:
 181              		.cfi_def_cfa_register 7
 170:.\Generated_Source\PSoC5/VDAC8_1.c ****     /* Disble power to DAC */
 171:.\Generated_Source\PSoC5/VDAC8_1.c ****     VDAC8_1_PWRMGR &= (uint8)(~VDAC8_1_ACT_PWR_EN);
 182              		.loc 1 171 0
 183 0004 44F2A833 		movw	r3, #:lower16:1073759144
 184 0008 C4F20003 		movt	r3, #:upper16:1073759144
 185 000c 44F2A832 		movw	r2, #:lower16:1073759144
 186 0010 C4F20002 		movt	r2, #:upper16:1073759144
 187 0014 1278     		ldrb	r2, [r2, #0]
 188 0016 D2B2     		uxtb	r2, r2
 189 0018 02F0FE02 		and	r2, r2, #254
 190 001c 1A70     		strb	r2, [r3, #0]
 172:.\Generated_Source\PSoC5/VDAC8_1.c ****     VDAC8_1_STBY_PWRMGR &= (uint8)(~VDAC8_1_STBY_PWR_EN);
 191              		.loc 1 172 0
 192 001e 44F2B833 		movw	r3, #:lower16:1073759160
 193 0022 C4F20003 		movt	r3, #:upper16:1073759160
 194 0026 44F2B832 		movw	r2, #:lower16:1073759160
 195 002a C4F20002 		movt	r2, #:upper16:1073759160
 196 002e 1278     		ldrb	r2, [r2, #0]
 197 0030 D2B2     		uxtb	r2, r2
 198 0032 02F0FE02 		and	r2, r2, #254
 199 0036 1A70     		strb	r2, [r3, #0]
 173:.\Generated_Source\PSoC5/VDAC8_1.c **** 
 174:.\Generated_Source\PSoC5/VDAC8_1.c ****     /* This is a work around for PSoC5A  ,
 175:.\Generated_Source\PSoC5/VDAC8_1.c ****     this sets VDAC to current mode with output off */
 176:.\Generated_Source\PSoC5/VDAC8_1.c ****     #if (CY_PSOC5A)
 177:.\Generated_Source\PSoC5/VDAC8_1.c ****         VDAC8_1_backup.data_value = VDAC8_1_CR0;
 178:.\Generated_Source\PSoC5/VDAC8_1.c ****         VDAC8_1_CR0 = VDAC8_1_CUR_MODE_OUT_OFF;
 179:.\Generated_Source\PSoC5/VDAC8_1.c ****         VDAC8_1_restoreVal = 1u;
 180:.\Generated_Source\PSoC5/VDAC8_1.c ****     #endif /* CY_PSOC5A */
 181:.\Generated_Source\PSoC5/VDAC8_1.c **** }
 200              		.loc 1 181 0
 201 0038 BD46     		mov	sp, r7
 202 003a 80BC     		pop	{r7}
 203 003c 7047     		bx	lr
 204              		.cfi_endproc
 205              	.LFE3:
 206              		.size	VDAC8_1_Stop, .-VDAC8_1_Stop
 207 003e 00BF     		.section	.text.VDAC8_1_SetSpeed,"ax",%progbits
 208              		.align	2
 209              		.global	VDAC8_1_SetSpeed
 210              		.thumb
 211              		.thumb_func
 212              		.type	VDAC8_1_SetSpeed, %function
 213              	VDAC8_1_SetSpeed:
 214              	.LFB4:
ARM GAS  C:\Users\RAPHAE~1\AppData\Local\Temp\cci4gtaY.s 			page 8


 182:.\Generated_Source\PSoC5/VDAC8_1.c **** 
 183:.\Generated_Source\PSoC5/VDAC8_1.c **** 
 184:.\Generated_Source\PSoC5/VDAC8_1.c **** /*******************************************************************************
 185:.\Generated_Source\PSoC5/VDAC8_1.c **** * Function Name: VDAC8_1_SetSpeed
 186:.\Generated_Source\PSoC5/VDAC8_1.c **** ********************************************************************************
 187:.\Generated_Source\PSoC5/VDAC8_1.c **** *
 188:.\Generated_Source\PSoC5/VDAC8_1.c **** * Summary:
 189:.\Generated_Source\PSoC5/VDAC8_1.c **** *  Set DAC speed
 190:.\Generated_Source\PSoC5/VDAC8_1.c **** *
 191:.\Generated_Source\PSoC5/VDAC8_1.c **** * Parameters:
 192:.\Generated_Source\PSoC5/VDAC8_1.c **** *  power: Sets speed value
 193:.\Generated_Source\PSoC5/VDAC8_1.c **** *
 194:.\Generated_Source\PSoC5/VDAC8_1.c **** * Return:
 195:.\Generated_Source\PSoC5/VDAC8_1.c **** *  void
 196:.\Generated_Source\PSoC5/VDAC8_1.c **** *
 197:.\Generated_Source\PSoC5/VDAC8_1.c **** * Theory:
 198:.\Generated_Source\PSoC5/VDAC8_1.c **** *
 199:.\Generated_Source\PSoC5/VDAC8_1.c **** * Side Effects:
 200:.\Generated_Source\PSoC5/VDAC8_1.c **** *
 201:.\Generated_Source\PSoC5/VDAC8_1.c **** *******************************************************************************/
 202:.\Generated_Source\PSoC5/VDAC8_1.c **** void VDAC8_1_SetSpeed(uint8 speed) 
 203:.\Generated_Source\PSoC5/VDAC8_1.c **** {
 215              		.loc 1 203 0
 216              		.cfi_startproc
 217              		@ args = 0, pretend = 0, frame = 8
 218              		@ frame_needed = 1, uses_anonymous_args = 0
 219              		@ link register save eliminated.
 220 0000 80B4     		push	{r7}
 221              	.LCFI8:
 222              		.cfi_def_cfa_offset 4
 223 0002 83B0     		sub	sp, sp, #12
 224              	.LCFI9:
 225              		.cfi_def_cfa_offset 16
 226 0004 00AF     		add	r7, sp, #0
 227              		.cfi_offset 7, -4
 228              	.LCFI10:
 229              		.cfi_def_cfa_register 7
 230 0006 0346     		mov	r3, r0
 231 0008 FB71     		strb	r3, [r7, #7]
 204:.\Generated_Source\PSoC5/VDAC8_1.c ****     /* Clear power mask then write in new value */
 205:.\Generated_Source\PSoC5/VDAC8_1.c ****     VDAC8_1_CR0 &= (uint8)(~VDAC8_1_HS_MASK);
 232              		.loc 1 205 0
 233 000a 45F62003 		movw	r3, #:lower16:1073764384
 234 000e C4F20003 		movt	r3, #:upper16:1073764384
 235 0012 45F62002 		movw	r2, #:lower16:1073764384
 236 0016 C4F20002 		movt	r2, #:upper16:1073764384
 237 001a 1278     		ldrb	r2, [r2, #0]
 238 001c D2B2     		uxtb	r2, r2
 239 001e 02F0FD02 		and	r2, r2, #253
 240 0022 1A70     		strb	r2, [r3, #0]
 206:.\Generated_Source\PSoC5/VDAC8_1.c ****     VDAC8_1_CR0 |=  (speed & VDAC8_1_HS_MASK);
 241              		.loc 1 206 0
 242 0024 45F62003 		movw	r3, #:lower16:1073764384
 243 0028 C4F20003 		movt	r3, #:upper16:1073764384
 244 002c 45F62002 		movw	r2, #:lower16:1073764384
 245 0030 C4F20002 		movt	r2, #:upper16:1073764384
 246 0034 1278     		ldrb	r2, [r2, #0]
ARM GAS  C:\Users\RAPHAE~1\AppData\Local\Temp\cci4gtaY.s 			page 9


 247 0036 D1B2     		uxtb	r1, r2
 248 0038 FA79     		ldrb	r2, [r7, #7]	@ zero_extendqisi2
 249 003a 02F00202 		and	r2, r2, #2
 250 003e 41EA0202 		orr	r2, r1, r2
 251 0042 D2B2     		uxtb	r2, r2
 252 0044 1A70     		strb	r2, [r3, #0]
 207:.\Generated_Source\PSoC5/VDAC8_1.c **** }
 253              		.loc 1 207 0
 254 0046 07F10C07 		add	r7, r7, #12
 255 004a BD46     		mov	sp, r7
 256 004c 80BC     		pop	{r7}
 257 004e 7047     		bx	lr
 258              		.cfi_endproc
 259              	.LFE4:
 260              		.size	VDAC8_1_SetSpeed, .-VDAC8_1_SetSpeed
 261              		.section	.text.VDAC8_1_SetRange,"ax",%progbits
 262              		.align	2
 263              		.global	VDAC8_1_SetRange
 264              		.thumb
 265              		.thumb_func
 266              		.type	VDAC8_1_SetRange, %function
 267              	VDAC8_1_SetRange:
 268              	.LFB5:
 208:.\Generated_Source\PSoC5/VDAC8_1.c **** 
 209:.\Generated_Source\PSoC5/VDAC8_1.c **** 
 210:.\Generated_Source\PSoC5/VDAC8_1.c **** /*******************************************************************************
 211:.\Generated_Source\PSoC5/VDAC8_1.c **** * Function Name: VDAC8_1_SetRange
 212:.\Generated_Source\PSoC5/VDAC8_1.c **** ********************************************************************************
 213:.\Generated_Source\PSoC5/VDAC8_1.c **** *
 214:.\Generated_Source\PSoC5/VDAC8_1.c **** * Summary:
 215:.\Generated_Source\PSoC5/VDAC8_1.c **** *  Set one of three current ranges.
 216:.\Generated_Source\PSoC5/VDAC8_1.c **** *
 217:.\Generated_Source\PSoC5/VDAC8_1.c **** * Parameters:
 218:.\Generated_Source\PSoC5/VDAC8_1.c **** *  Range: Sets one of Three valid ranges.
 219:.\Generated_Source\PSoC5/VDAC8_1.c **** *
 220:.\Generated_Source\PSoC5/VDAC8_1.c **** * Return:
 221:.\Generated_Source\PSoC5/VDAC8_1.c **** *  void 
 222:.\Generated_Source\PSoC5/VDAC8_1.c **** *
 223:.\Generated_Source\PSoC5/VDAC8_1.c **** * Theory:
 224:.\Generated_Source\PSoC5/VDAC8_1.c **** *
 225:.\Generated_Source\PSoC5/VDAC8_1.c **** * Side Effects:
 226:.\Generated_Source\PSoC5/VDAC8_1.c **** *
 227:.\Generated_Source\PSoC5/VDAC8_1.c **** *******************************************************************************/
 228:.\Generated_Source\PSoC5/VDAC8_1.c **** void VDAC8_1_SetRange(uint8 range) 
 229:.\Generated_Source\PSoC5/VDAC8_1.c **** {
 269              		.loc 1 229 0
 270              		.cfi_startproc
 271              		@ args = 0, pretend = 0, frame = 8
 272              		@ frame_needed = 1, uses_anonymous_args = 0
 273 0000 80B5     		push	{r7, lr}
 274              	.LCFI11:
 275              		.cfi_def_cfa_offset 8
 276 0002 82B0     		sub	sp, sp, #8
 277              	.LCFI12:
 278              		.cfi_def_cfa_offset 16
 279 0004 00AF     		add	r7, sp, #0
 280              		.cfi_offset 14, -4
ARM GAS  C:\Users\RAPHAE~1\AppData\Local\Temp\cci4gtaY.s 			page 10


 281              		.cfi_offset 7, -8
 282              	.LCFI13:
 283              		.cfi_def_cfa_register 7
 284 0006 0346     		mov	r3, r0
 285 0008 FB71     		strb	r3, [r7, #7]
 230:.\Generated_Source\PSoC5/VDAC8_1.c ****     VDAC8_1_CR0 &= (uint8)(~VDAC8_1_RANGE_MASK);      /* Clear existing mode */
 286              		.loc 1 230 0
 287 000a 45F62003 		movw	r3, #:lower16:1073764384
 288 000e C4F20003 		movt	r3, #:upper16:1073764384
 289 0012 45F62002 		movw	r2, #:lower16:1073764384
 290 0016 C4F20002 		movt	r2, #:upper16:1073764384
 291 001a 1278     		ldrb	r2, [r2, #0]
 292 001c D2B2     		uxtb	r2, r2
 293 001e 02F0F302 		and	r2, r2, #243
 294 0022 1A70     		strb	r2, [r3, #0]
 231:.\Generated_Source\PSoC5/VDAC8_1.c ****     VDAC8_1_CR0 |= (range & VDAC8_1_RANGE_MASK);      /*  Set Range  */
 295              		.loc 1 231 0
 296 0024 45F62003 		movw	r3, #:lower16:1073764384
 297 0028 C4F20003 		movt	r3, #:upper16:1073764384
 298 002c 45F62002 		movw	r2, #:lower16:1073764384
 299 0030 C4F20002 		movt	r2, #:upper16:1073764384
 300 0034 1278     		ldrb	r2, [r2, #0]
 301 0036 D1B2     		uxtb	r1, r2
 302 0038 FA79     		ldrb	r2, [r7, #7]	@ zero_extendqisi2
 303 003a 02F00C02 		and	r2, r2, #12
 304 003e 41EA0202 		orr	r2, r1, r2
 305 0042 D2B2     		uxtb	r2, r2
 306 0044 1A70     		strb	r2, [r3, #0]
 232:.\Generated_Source\PSoC5/VDAC8_1.c ****     VDAC8_1_DacTrim();
 307              		.loc 1 232 0
 308 0046 FFF7FEFF 		bl	VDAC8_1_DacTrim
 233:.\Generated_Source\PSoC5/VDAC8_1.c **** }
 309              		.loc 1 233 0
 310 004a 07F10807 		add	r7, r7, #8
 311 004e BD46     		mov	sp, r7
 312 0050 80BD     		pop	{r7, pc}
 313              		.cfi_endproc
 314              	.LFE5:
 315              		.size	VDAC8_1_SetRange, .-VDAC8_1_SetRange
 316 0052 00BF     		.section	.text.VDAC8_1_SetValue,"ax",%progbits
 317              		.align	2
 318              		.global	VDAC8_1_SetValue
 319              		.thumb
 320              		.thumb_func
 321              		.type	VDAC8_1_SetValue, %function
 322              	VDAC8_1_SetValue:
 323              	.LFB6:
 234:.\Generated_Source\PSoC5/VDAC8_1.c **** 
 235:.\Generated_Source\PSoC5/VDAC8_1.c **** 
 236:.\Generated_Source\PSoC5/VDAC8_1.c **** /*******************************************************************************
 237:.\Generated_Source\PSoC5/VDAC8_1.c **** * Function Name: VDAC8_1_SetValue
 238:.\Generated_Source\PSoC5/VDAC8_1.c **** ********************************************************************************
 239:.\Generated_Source\PSoC5/VDAC8_1.c **** *
 240:.\Generated_Source\PSoC5/VDAC8_1.c **** * Summary:
 241:.\Generated_Source\PSoC5/VDAC8_1.c **** *  Set 8-bit DAC value
 242:.\Generated_Source\PSoC5/VDAC8_1.c **** *
 243:.\Generated_Source\PSoC5/VDAC8_1.c **** * Parameters:  
ARM GAS  C:\Users\RAPHAE~1\AppData\Local\Temp\cci4gtaY.s 			page 11


 244:.\Generated_Source\PSoC5/VDAC8_1.c **** *  value:  Sets DAC value between 0 and 255.
 245:.\Generated_Source\PSoC5/VDAC8_1.c **** *
 246:.\Generated_Source\PSoC5/VDAC8_1.c **** * Return: 
 247:.\Generated_Source\PSoC5/VDAC8_1.c **** *  void 
 248:.\Generated_Source\PSoC5/VDAC8_1.c **** *
 249:.\Generated_Source\PSoC5/VDAC8_1.c **** * Theory: 
 250:.\Generated_Source\PSoC5/VDAC8_1.c **** *
 251:.\Generated_Source\PSoC5/VDAC8_1.c **** * Side Effects:
 252:.\Generated_Source\PSoC5/VDAC8_1.c **** *
 253:.\Generated_Source\PSoC5/VDAC8_1.c **** *******************************************************************************/
 254:.\Generated_Source\PSoC5/VDAC8_1.c **** void VDAC8_1_SetValue(uint8 value) 
 255:.\Generated_Source\PSoC5/VDAC8_1.c **** {
 324              		.loc 1 255 0
 325              		.cfi_startproc
 326              		@ args = 0, pretend = 0, frame = 8
 327              		@ frame_needed = 1, uses_anonymous_args = 0
 328              		@ link register save eliminated.
 329 0000 80B4     		push	{r7}
 330              	.LCFI14:
 331              		.cfi_def_cfa_offset 4
 332 0002 83B0     		sub	sp, sp, #12
 333              	.LCFI15:
 334              		.cfi_def_cfa_offset 16
 335 0004 00AF     		add	r7, sp, #0
 336              		.cfi_offset 7, -4
 337              	.LCFI16:
 338              		.cfi_def_cfa_register 7
 339 0006 0346     		mov	r3, r0
 340 0008 FB71     		strb	r3, [r7, #7]
 256:.\Generated_Source\PSoC5/VDAC8_1.c ****     #if (CY_PSOC5A)
 257:.\Generated_Source\PSoC5/VDAC8_1.c ****         uint8 VDAC8_1_intrStatus = CyEnterCriticalSection();
 258:.\Generated_Source\PSoC5/VDAC8_1.c ****     #endif /* CY_PSOC5A */
 259:.\Generated_Source\PSoC5/VDAC8_1.c **** 
 260:.\Generated_Source\PSoC5/VDAC8_1.c ****     VDAC8_1_Data = value;                /*  Set Value  */
 341              		.loc 1 260 0
 342 000a 45F68033 		movw	r3, #:lower16:1073765248
 343 000e C4F20003 		movt	r3, #:upper16:1073765248
 344 0012 FA79     		ldrb	r2, [r7, #7]
 345 0014 1A70     		strb	r2, [r3, #0]
 261:.\Generated_Source\PSoC5/VDAC8_1.c **** 
 262:.\Generated_Source\PSoC5/VDAC8_1.c ****     /* PSOC5A requires a double write */
 263:.\Generated_Source\PSoC5/VDAC8_1.c ****     /* Exit Critical Section */
 264:.\Generated_Source\PSoC5/VDAC8_1.c ****     #if (CY_PSOC5A)
 265:.\Generated_Source\PSoC5/VDAC8_1.c ****         VDAC8_1_Data = value;
 266:.\Generated_Source\PSoC5/VDAC8_1.c ****         CyExitCriticalSection(VDAC8_1_intrStatus);
 267:.\Generated_Source\PSoC5/VDAC8_1.c ****     #endif /* CY_PSOC5A */
 268:.\Generated_Source\PSoC5/VDAC8_1.c **** }
 346              		.loc 1 268 0
 347 0016 07F10C07 		add	r7, r7, #12
 348 001a BD46     		mov	sp, r7
 349 001c 80BC     		pop	{r7}
 350 001e 7047     		bx	lr
 351              		.cfi_endproc
 352              	.LFE6:
 353              		.size	VDAC8_1_SetValue, .-VDAC8_1_SetValue
 354              		.section	.text.VDAC8_1_DacTrim,"ax",%progbits
 355              		.align	2
ARM GAS  C:\Users\RAPHAE~1\AppData\Local\Temp\cci4gtaY.s 			page 12


 356              		.global	VDAC8_1_DacTrim
 357              		.thumb
 358              		.thumb_func
 359              		.type	VDAC8_1_DacTrim, %function
 360              	VDAC8_1_DacTrim:
 361              	.LFB7:
 269:.\Generated_Source\PSoC5/VDAC8_1.c **** 
 270:.\Generated_Source\PSoC5/VDAC8_1.c **** 
 271:.\Generated_Source\PSoC5/VDAC8_1.c **** /*******************************************************************************
 272:.\Generated_Source\PSoC5/VDAC8_1.c **** * Function Name: VDAC8_1_DacTrim
 273:.\Generated_Source\PSoC5/VDAC8_1.c **** ********************************************************************************
 274:.\Generated_Source\PSoC5/VDAC8_1.c **** *
 275:.\Generated_Source\PSoC5/VDAC8_1.c **** * Summary:
 276:.\Generated_Source\PSoC5/VDAC8_1.c **** *  Set the trim value for the given range.
 277:.\Generated_Source\PSoC5/VDAC8_1.c **** *
 278:.\Generated_Source\PSoC5/VDAC8_1.c **** * Parameters:
 279:.\Generated_Source\PSoC5/VDAC8_1.c **** *  range:  1V or 4V range.  See constants.
 280:.\Generated_Source\PSoC5/VDAC8_1.c **** *
 281:.\Generated_Source\PSoC5/VDAC8_1.c **** * Return:
 282:.\Generated_Source\PSoC5/VDAC8_1.c **** *  void
 283:.\Generated_Source\PSoC5/VDAC8_1.c **** *
 284:.\Generated_Source\PSoC5/VDAC8_1.c **** * Theory: 
 285:.\Generated_Source\PSoC5/VDAC8_1.c **** *
 286:.\Generated_Source\PSoC5/VDAC8_1.c **** * Side Effects:
 287:.\Generated_Source\PSoC5/VDAC8_1.c **** *
 288:.\Generated_Source\PSoC5/VDAC8_1.c **** *******************************************************************************/
 289:.\Generated_Source\PSoC5/VDAC8_1.c **** void VDAC8_1_DacTrim(void) 
 290:.\Generated_Source\PSoC5/VDAC8_1.c **** {
 362              		.loc 1 290 0
 363              		.cfi_startproc
 364              		@ args = 0, pretend = 0, frame = 8
 365              		@ frame_needed = 1, uses_anonymous_args = 0
 366              		@ link register save eliminated.
 367 0000 80B4     		push	{r7}
 368              	.LCFI17:
 369              		.cfi_def_cfa_offset 4
 370 0002 83B0     		sub	sp, sp, #12
 371              	.LCFI18:
 372              		.cfi_def_cfa_offset 16
 373 0004 00AF     		add	r7, sp, #0
 374              		.cfi_offset 7, -4
 375              	.LCFI19:
 376              		.cfi_def_cfa_register 7
 291:.\Generated_Source\PSoC5/VDAC8_1.c ****     uint8 mode;
 292:.\Generated_Source\PSoC5/VDAC8_1.c **** 
 293:.\Generated_Source\PSoC5/VDAC8_1.c ****     mode = (uint8)((VDAC8_1_CR0 & VDAC8_1_RANGE_MASK) >> 2) + VDAC8_1_TRIM_M7_1V_RNG_OFFSET;
 377              		.loc 1 293 0
 378 0006 45F62003 		movw	r3, #:lower16:1073764384
 379 000a C4F20003 		movt	r3, #:upper16:1073764384
 380 000e 1B78     		ldrb	r3, [r3, #0]
 381 0010 DBB2     		uxtb	r3, r3
 382 0012 03F00C03 		and	r3, r3, #12
 383 0016 4FEA9303 		lsr	r3, r3, #2
 384 001a DBB2     		uxtb	r3, r3
 385 001c 03F10603 		add	r3, r3, #6
 386 0020 FB71     		strb	r3, [r7, #7]
 294:.\Generated_Source\PSoC5/VDAC8_1.c ****     VDAC8_1_TR = CY_GET_XTND_REG8((uint8 *)(VDAC8_1_DAC_TRIM_BASE + mode));
ARM GAS  C:\Users\RAPHAE~1\AppData\Local\Temp\cci4gtaY.s 			page 13


 387              		.loc 1 294 0
 388 0022 44F20863 		movw	r3, #:lower16:1073759752
 389 0026 C4F20003 		movt	r3, #:upper16:1073759752
 390 002a FA79     		ldrb	r2, [r7, #7]	@ zero_extendqisi2
 391 002c 02F19242 		add	r2, r2, #1224736768
 392 0030 02F59072 		add	r2, r2, #288
 393 0034 1278     		ldrb	r2, [r2, #0]
 394 0036 D2B2     		uxtb	r2, r2
 395 0038 1A70     		strb	r2, [r3, #0]
 295:.\Generated_Source\PSoC5/VDAC8_1.c **** }
 396              		.loc 1 295 0
 397 003a 07F10C07 		add	r7, r7, #12
 398 003e BD46     		mov	sp, r7
 399 0040 80BC     		pop	{r7}
 400 0042 7047     		bx	lr
 401              		.cfi_endproc
 402              	.LFE7:
 403              		.size	VDAC8_1_DacTrim, .-VDAC8_1_DacTrim
 404              		.text
 405              	.Letext0: