ARM GAS  C:\Users\RAPHAE~1\AppData\Local\Temp\cclOmceu.s 			page 1


   1              		.syntax unified
   2              		.cpu cortex-m3
   3              		.fpu softvfp
   4              		.eabi_attribute 20, 1
   5              		.eabi_attribute 21, 1
   6              		.eabi_attribute 23, 3
   7              		.eabi_attribute 24, 1
   8              		.eabi_attribute 25, 1
   9              		.eabi_attribute 26, 1
  10              		.eabi_attribute 30, 6
  11              		.eabi_attribute 34, 1
  12              		.eabi_attribute 18, 4
  13              		.thumb
  14              		.file	"cyfitter_cfg.c"
  15              		.text
  16              	.Ltext0:
  17              		.cfi_sections	.debug_frame
  18              		.section	.text.CYMEMZERO,"ax",%progbits
  19              		.align	2
  20              		.thumb
  21              		.thumb_func
  22              		.type	CYMEMZERO, %function
  23              	CYMEMZERO:
  24              	.LFB0:
  25              		.file 1 "Generated_Source\\PSoC5\\cyfitter_cfg.c"
   1:Generated_Source\PSoC5/cyfitter_cfg.c **** /*******************************************************************************
   2:Generated_Source\PSoC5/cyfitter_cfg.c **** * File Name: cyfitter_cfg.c
   3:Generated_Source\PSoC5/cyfitter_cfg.c **** * 
   4:Generated_Source\PSoC5/cyfitter_cfg.c **** * PSoC Creator  4.0 Update 1
   5:Generated_Source\PSoC5/cyfitter_cfg.c **** *
   6:Generated_Source\PSoC5/cyfitter_cfg.c **** * Description:
   7:Generated_Source\PSoC5/cyfitter_cfg.c **** * This file contains device initialization code.
   8:Generated_Source\PSoC5/cyfitter_cfg.c **** * Except for the user defined sections in CyClockStartupError(), this file should not be modified.
   9:Generated_Source\PSoC5/cyfitter_cfg.c **** * This file is automatically generated by PSoC Creator.
  10:Generated_Source\PSoC5/cyfitter_cfg.c **** *
  11:Generated_Source\PSoC5/cyfitter_cfg.c **** ********************************************************************************
  12:Generated_Source\PSoC5/cyfitter_cfg.c **** * Copyright (c) 2007-2016 Cypress Semiconductor.  All rights reserved.
  13:Generated_Source\PSoC5/cyfitter_cfg.c **** * You may use this file only in accordance with the license, terms, conditions, 
  14:Generated_Source\PSoC5/cyfitter_cfg.c **** * disclaimers, and limitations in the end user license agreement accompanying 
  15:Generated_Source\PSoC5/cyfitter_cfg.c **** * the software package with which this file was provided.
  16:Generated_Source\PSoC5/cyfitter_cfg.c **** ********************************************************************************/
  17:Generated_Source\PSoC5/cyfitter_cfg.c **** 
  18:Generated_Source\PSoC5/cyfitter_cfg.c **** #include <string.h>
  19:Generated_Source\PSoC5/cyfitter_cfg.c **** #include "cytypes.h"
  20:Generated_Source\PSoC5/cyfitter_cfg.c **** #include "cydevice_trm.h"
  21:Generated_Source\PSoC5/cyfitter_cfg.c **** #include "cyfitter.h"
  22:Generated_Source\PSoC5/cyfitter_cfg.c **** #include "CyLib.h"
  23:Generated_Source\PSoC5/cyfitter_cfg.c **** #include "cyfitter_cfg.h"
  24:Generated_Source\PSoC5/cyfitter_cfg.c **** 
  25:Generated_Source\PSoC5/cyfitter_cfg.c **** #define CY_NEED_CYCLOCKSTARTUPERROR 1
  26:Generated_Source\PSoC5/cyfitter_cfg.c **** 
  27:Generated_Source\PSoC5/cyfitter_cfg.c **** 
  28:Generated_Source\PSoC5/cyfitter_cfg.c **** #if defined(__GNUC__) || defined(__ARMCC_VERSION)
  29:Generated_Source\PSoC5/cyfitter_cfg.c ****     #define CYPACKED 
  30:Generated_Source\PSoC5/cyfitter_cfg.c ****     #define CYPACKED_ATTR __attribute__ ((packed))
  31:Generated_Source\PSoC5/cyfitter_cfg.c ****     #define CYALIGNED __attribute__ ((aligned))
  32:Generated_Source\PSoC5/cyfitter_cfg.c ****     #define CY_CFG_UNUSED __attribute__ ((unused))
ARM GAS  C:\Users\RAPHAE~1\AppData\Local\Temp\cclOmceu.s 			page 2


  33:Generated_Source\PSoC5/cyfitter_cfg.c ****     #ifndef CY_CFG_SECTION
  34:Generated_Source\PSoC5/cyfitter_cfg.c ****         #define CY_CFG_SECTION __attribute__ ((section(".psocinit")))
  35:Generated_Source\PSoC5/cyfitter_cfg.c ****     #endif
  36:Generated_Source\PSoC5/cyfitter_cfg.c ****     
  37:Generated_Source\PSoC5/cyfitter_cfg.c ****     #if CYDEV_CONFIGURATION_DMA
  38:Generated_Source\PSoC5/cyfitter_cfg.c ****         #if (defined(__ARMCC_VERSION) || defined(__GNUC__))
  39:Generated_Source\PSoC5/cyfitter_cfg.c ****             #ifndef DMAINITSEC
  40:Generated_Source\PSoC5/cyfitter_cfg.c ****                 #define DMAINITSEC __attribute__ ((section(".dma_init")))
  41:Generated_Source\PSoC5/cyfitter_cfg.c ****             #endif
  42:Generated_Source\PSoC5/cyfitter_cfg.c ****         #elif defined(__ICCARM__)
  43:Generated_Source\PSoC5/cyfitter_cfg.c ****             #define DMAINITSEC _Pragma("location=\".dma_init\"")
  44:Generated_Source\PSoC5/cyfitter_cfg.c ****         #endif
  45:Generated_Source\PSoC5/cyfitter_cfg.c ****     #else
  46:Generated_Source\PSoC5/cyfitter_cfg.c ****         #define DMAINITSEC
  47:Generated_Source\PSoC5/cyfitter_cfg.c ****     #endif
  48:Generated_Source\PSoC5/cyfitter_cfg.c **** 
  49:Generated_Source\PSoC5/cyfitter_cfg.c ****     #if defined(__ARMCC_VERSION)
  50:Generated_Source\PSoC5/cyfitter_cfg.c ****         #define CY_CFG_MEMORY_BARRIER() __memory_changed()
  51:Generated_Source\PSoC5/cyfitter_cfg.c ****     #else
  52:Generated_Source\PSoC5/cyfitter_cfg.c ****         #define CY_CFG_MEMORY_BARRIER() __sync_synchronize()
  53:Generated_Source\PSoC5/cyfitter_cfg.c ****     #endif
  54:Generated_Source\PSoC5/cyfitter_cfg.c ****     
  55:Generated_Source\PSoC5/cyfitter_cfg.c **** #elif defined(__ICCARM__)
  56:Generated_Source\PSoC5/cyfitter_cfg.c ****     #include <intrinsics.h>
  57:Generated_Source\PSoC5/cyfitter_cfg.c **** 
  58:Generated_Source\PSoC5/cyfitter_cfg.c ****     #define CYPACKED __packed
  59:Generated_Source\PSoC5/cyfitter_cfg.c ****     #define CYPACKED_ATTR 
  60:Generated_Source\PSoC5/cyfitter_cfg.c ****     #define CYALIGNED _Pragma("data_alignment=4")
  61:Generated_Source\PSoC5/cyfitter_cfg.c ****     #define CY_CFG_UNUSED _Pragma("diag_suppress=Pe177")
  62:Generated_Source\PSoC5/cyfitter_cfg.c ****     #define CY_CFG_SECTION _Pragma("location=\".psocinit\"")
  63:Generated_Source\PSoC5/cyfitter_cfg.c ****     
  64:Generated_Source\PSoC5/cyfitter_cfg.c ****     #if CYDEV_CONFIGURATION_DMA
  65:Generated_Source\PSoC5/cyfitter_cfg.c ****         #if (defined(__ARMCC_VERSION) || defined(__GNUC__))
  66:Generated_Source\PSoC5/cyfitter_cfg.c ****             #ifndef DMAINITSEC
  67:Generated_Source\PSoC5/cyfitter_cfg.c ****                 #define DMAINITSEC __attribute__ ((section(".dma_init")))
  68:Generated_Source\PSoC5/cyfitter_cfg.c ****             #endif
  69:Generated_Source\PSoC5/cyfitter_cfg.c ****         #elif defined(__ICCARM__)
  70:Generated_Source\PSoC5/cyfitter_cfg.c ****             #define DMAINITSEC _Pragma("location=\".dma_init\"")
  71:Generated_Source\PSoC5/cyfitter_cfg.c ****         #endif
  72:Generated_Source\PSoC5/cyfitter_cfg.c ****     #else
  73:Generated_Source\PSoC5/cyfitter_cfg.c ****         #define DMAINITSEC
  74:Generated_Source\PSoC5/cyfitter_cfg.c ****     #endif
  75:Generated_Source\PSoC5/cyfitter_cfg.c **** 
  76:Generated_Source\PSoC5/cyfitter_cfg.c ****     #define CY_CFG_MEMORY_BARRIER() __DMB()
  77:Generated_Source\PSoC5/cyfitter_cfg.c ****     
  78:Generated_Source\PSoC5/cyfitter_cfg.c **** #else
  79:Generated_Source\PSoC5/cyfitter_cfg.c ****     #error Unsupported toolchain
  80:Generated_Source\PSoC5/cyfitter_cfg.c **** #endif
  81:Generated_Source\PSoC5/cyfitter_cfg.c **** 
  82:Generated_Source\PSoC5/cyfitter_cfg.c **** 
  83:Generated_Source\PSoC5/cyfitter_cfg.c **** CY_CFG_UNUSED
  84:Generated_Source\PSoC5/cyfitter_cfg.c **** static void CYMEMZERO(void *s, size_t n);
  85:Generated_Source\PSoC5/cyfitter_cfg.c **** CY_CFG_UNUSED
  86:Generated_Source\PSoC5/cyfitter_cfg.c **** static void CYMEMZERO(void *s, size_t n)
  87:Generated_Source\PSoC5/cyfitter_cfg.c **** {
  26              		.loc 1 87 0
  27              		.cfi_startproc
ARM GAS  C:\Users\RAPHAE~1\AppData\Local\Temp\cclOmceu.s 			page 3


  28              		@ args = 0, pretend = 0, frame = 8
  29              		@ frame_needed = 1, uses_anonymous_args = 0
  30 0000 80B5     		push	{r7, lr}
  31              		.cfi_def_cfa_offset 8
  32              		.cfi_offset 7, -8
  33              		.cfi_offset 14, -4
  34 0002 82B0     		sub	sp, sp, #8
  35              		.cfi_def_cfa_offset 16
  36 0004 00AF     		add	r7, sp, #0
  37              		.cfi_def_cfa_register 7
  38 0006 7860     		str	r0, [r7, #4]
  39 0008 3960     		str	r1, [r7]
  88:Generated_Source\PSoC5/cyfitter_cfg.c **** 	(void)memset(s, 0, n);
  40              		.loc 1 88 0
  41 000a 7868     		ldr	r0, [r7, #4]
  42 000c 0021     		movs	r1, #0
  43 000e 3A68     		ldr	r2, [r7]
  44 0010 FFF7FEFF 		bl	memset
  89:Generated_Source\PSoC5/cyfitter_cfg.c **** }
  45              		.loc 1 89 0
  46 0014 0837     		adds	r7, r7, #8
  47              		.cfi_def_cfa_offset 8
  48 0016 BD46     		mov	sp, r7
  49              		.cfi_def_cfa_register 13
  50              		@ sp needed
  51 0018 80BD     		pop	{r7, pc}
  52              		.cfi_endproc
  53              	.LFE0:
  54              		.size	CYMEMZERO, .-CYMEMZERO
  55 001a 00BF     		.section	.text.CYCONFIGCPY,"ax",%progbits
  56              		.align	2
  57              		.thumb
  58              		.thumb_func
  59              		.type	CYCONFIGCPY, %function
  60              	CYCONFIGCPY:
  61              	.LFB1:
  90:Generated_Source\PSoC5/cyfitter_cfg.c **** CY_CFG_UNUSED
  91:Generated_Source\PSoC5/cyfitter_cfg.c **** static void CYCONFIGCPY(void *dest, const void *src, size_t n);
  92:Generated_Source\PSoC5/cyfitter_cfg.c **** CY_CFG_UNUSED
  93:Generated_Source\PSoC5/cyfitter_cfg.c **** static void CYCONFIGCPY(void *dest, const void *src, size_t n)
  94:Generated_Source\PSoC5/cyfitter_cfg.c **** {
  62              		.loc 1 94 0
  63              		.cfi_startproc
  64              		@ args = 0, pretend = 0, frame = 16
  65              		@ frame_needed = 1, uses_anonymous_args = 0
  66 0000 80B5     		push	{r7, lr}
  67              		.cfi_def_cfa_offset 8
  68              		.cfi_offset 7, -8
  69              		.cfi_offset 14, -4
  70 0002 84B0     		sub	sp, sp, #16
  71              		.cfi_def_cfa_offset 24
  72 0004 00AF     		add	r7, sp, #0
  73              		.cfi_def_cfa_register 7
  74 0006 F860     		str	r0, [r7, #12]
  75 0008 B960     		str	r1, [r7, #8]
  76 000a 7A60     		str	r2, [r7, #4]
  95:Generated_Source\PSoC5/cyfitter_cfg.c **** 	(void)memcpy(dest, src, n);
ARM GAS  C:\Users\RAPHAE~1\AppData\Local\Temp\cclOmceu.s 			page 4


  77              		.loc 1 95 0
  78 000c F868     		ldr	r0, [r7, #12]
  79 000e B968     		ldr	r1, [r7, #8]
  80 0010 7A68     		ldr	r2, [r7, #4]
  81 0012 FFF7FEFF 		bl	memcpy
  96:Generated_Source\PSoC5/cyfitter_cfg.c **** }
  82              		.loc 1 96 0
  83 0016 1037     		adds	r7, r7, #16
  84              		.cfi_def_cfa_offset 8
  85 0018 BD46     		mov	sp, r7
  86              		.cfi_def_cfa_register 13
  87              		@ sp needed
  88 001a 80BD     		pop	{r7, pc}
  89              		.cfi_endproc
  90              	.LFE1:
  91              		.size	CYCONFIGCPY, .-CYCONFIGCPY
  92              		.section	.text.CYCONFIGCPYCODE,"ax",%progbits
  93              		.align	2
  94              		.thumb
  95              		.thumb_func
  96              		.type	CYCONFIGCPYCODE, %function
  97              	CYCONFIGCPYCODE:
  98              	.LFB2:
  97:Generated_Source\PSoC5/cyfitter_cfg.c **** CY_CFG_UNUSED
  98:Generated_Source\PSoC5/cyfitter_cfg.c **** static void CYCONFIGCPYCODE(void *dest, const void *src, size_t n);
  99:Generated_Source\PSoC5/cyfitter_cfg.c **** CY_CFG_UNUSED
 100:Generated_Source\PSoC5/cyfitter_cfg.c **** static void CYCONFIGCPYCODE(void *dest, const void *src, size_t n)
 101:Generated_Source\PSoC5/cyfitter_cfg.c **** {
  99              		.loc 1 101 0
 100              		.cfi_startproc
 101              		@ args = 0, pretend = 0, frame = 16
 102              		@ frame_needed = 1, uses_anonymous_args = 0
 103 0000 80B5     		push	{r7, lr}
 104              		.cfi_def_cfa_offset 8
 105              		.cfi_offset 7, -8
 106              		.cfi_offset 14, -4
 107 0002 84B0     		sub	sp, sp, #16
 108              		.cfi_def_cfa_offset 24
 109 0004 00AF     		add	r7, sp, #0
 110              		.cfi_def_cfa_register 7
 111 0006 F860     		str	r0, [r7, #12]
 112 0008 B960     		str	r1, [r7, #8]
 113 000a 7A60     		str	r2, [r7, #4]
 102:Generated_Source\PSoC5/cyfitter_cfg.c **** 	(void)memcpy(dest, src, n);
 114              		.loc 1 102 0
 115 000c F868     		ldr	r0, [r7, #12]
 116 000e B968     		ldr	r1, [r7, #8]
 117 0010 7A68     		ldr	r2, [r7, #4]
 118 0012 FFF7FEFF 		bl	memcpy
 103:Generated_Source\PSoC5/cyfitter_cfg.c **** }
 119              		.loc 1 103 0
 120 0016 1037     		adds	r7, r7, #16
 121              		.cfi_def_cfa_offset 8
 122 0018 BD46     		mov	sp, r7
 123              		.cfi_def_cfa_register 13
 124              		@ sp needed
 125 001a 80BD     		pop	{r7, pc}
ARM GAS  C:\Users\RAPHAE~1\AppData\Local\Temp\cclOmceu.s 			page 5


 126              		.cfi_endproc
 127              	.LFE2:
 128              		.size	CYCONFIGCPYCODE, .-CYCONFIGCPYCODE
 129              		.section	.text.CyClockStartupError,"ax",%progbits
 130              		.align	2
 131              		.thumb
 132              		.thumb_func
 133              		.type	CyClockStartupError, %function
 134              	CyClockStartupError:
 135              	.LFB3:
 104:Generated_Source\PSoC5/cyfitter_cfg.c **** 
 105:Generated_Source\PSoC5/cyfitter_cfg.c **** 
 106:Generated_Source\PSoC5/cyfitter_cfg.c **** 
 107:Generated_Source\PSoC5/cyfitter_cfg.c **** 
 108:Generated_Source\PSoC5/cyfitter_cfg.c **** /* Clock startup error codes                                                   */
 109:Generated_Source\PSoC5/cyfitter_cfg.c **** #define CYCLOCKSTART_NO_ERROR    0u
 110:Generated_Source\PSoC5/cyfitter_cfg.c **** #define CYCLOCKSTART_XTAL_ERROR  1u
 111:Generated_Source\PSoC5/cyfitter_cfg.c **** #define CYCLOCKSTART_32KHZ_ERROR 2u
 112:Generated_Source\PSoC5/cyfitter_cfg.c **** #define CYCLOCKSTART_PLL_ERROR   3u
 113:Generated_Source\PSoC5/cyfitter_cfg.c **** 
 114:Generated_Source\PSoC5/cyfitter_cfg.c **** 
 115:Generated_Source\PSoC5/cyfitter_cfg.c **** #ifdef CY_NEED_CYCLOCKSTARTUPERROR
 116:Generated_Source\PSoC5/cyfitter_cfg.c **** /*******************************************************************************
 117:Generated_Source\PSoC5/cyfitter_cfg.c **** * Function Name: CyClockStartupError
 118:Generated_Source\PSoC5/cyfitter_cfg.c **** ********************************************************************************
 119:Generated_Source\PSoC5/cyfitter_cfg.c **** * Summary:
 120:Generated_Source\PSoC5/cyfitter_cfg.c **** *  If an error is encountered during clock configuration (crystal startup error,
 121:Generated_Source\PSoC5/cyfitter_cfg.c **** *  PLL lock error, etc.), the system will end up here.  Unless reimplemented by
 122:Generated_Source\PSoC5/cyfitter_cfg.c **** *  the customer, this function will stop in an infinite loop.
 123:Generated_Source\PSoC5/cyfitter_cfg.c **** *
 124:Generated_Source\PSoC5/cyfitter_cfg.c **** * Parameters:
 125:Generated_Source\PSoC5/cyfitter_cfg.c **** *   void
 126:Generated_Source\PSoC5/cyfitter_cfg.c **** *
 127:Generated_Source\PSoC5/cyfitter_cfg.c **** * Return:
 128:Generated_Source\PSoC5/cyfitter_cfg.c **** *   void
 129:Generated_Source\PSoC5/cyfitter_cfg.c **** *
 130:Generated_Source\PSoC5/cyfitter_cfg.c **** *******************************************************************************/
 131:Generated_Source\PSoC5/cyfitter_cfg.c **** CY_CFG_UNUSED
 132:Generated_Source\PSoC5/cyfitter_cfg.c **** static void CyClockStartupError(uint8 errorCode);
 133:Generated_Source\PSoC5/cyfitter_cfg.c **** CY_CFG_UNUSED
 134:Generated_Source\PSoC5/cyfitter_cfg.c **** static void CyClockStartupError(uint8 errorCode)
 135:Generated_Source\PSoC5/cyfitter_cfg.c **** {
 136              		.loc 1 135 0
 137              		.cfi_startproc
 138              		@ args = 0, pretend = 0, frame = 8
 139              		@ frame_needed = 1, uses_anonymous_args = 0
 140              		@ link register save eliminated.
 141 0000 80B4     		push	{r7}
 142              		.cfi_def_cfa_offset 4
 143              		.cfi_offset 7, -4
 144 0002 83B0     		sub	sp, sp, #12
 145              		.cfi_def_cfa_offset 16
 146 0004 00AF     		add	r7, sp, #0
 147              		.cfi_def_cfa_register 7
 148 0006 0346     		mov	r3, r0
 149 0008 FB71     		strb	r3, [r7, #7]
 150              	.L5:
ARM GAS  C:\Users\RAPHAE~1\AppData\Local\Temp\cclOmceu.s 			page 6


 136:Generated_Source\PSoC5/cyfitter_cfg.c ****     /* To remove the compiler warning if errorCode not used.                */
 137:Generated_Source\PSoC5/cyfitter_cfg.c ****     errorCode = errorCode;
 138:Generated_Source\PSoC5/cyfitter_cfg.c **** 
 139:Generated_Source\PSoC5/cyfitter_cfg.c ****     /* If we have a clock startup error (bad MHz crystal, PLL lock, etc.),  */
 140:Generated_Source\PSoC5/cyfitter_cfg.c ****     /* we will end up here to allow the customer to implement something to  */
 141:Generated_Source\PSoC5/cyfitter_cfg.c ****     /* deal with the clock condition.                                       */
 142:Generated_Source\PSoC5/cyfitter_cfg.c **** 
 143:Generated_Source\PSoC5/cyfitter_cfg.c **** #ifdef CY_CFG_CLOCK_STARTUP_ERROR_CALLBACK
 144:Generated_Source\PSoC5/cyfitter_cfg.c **** 	CY_CFG_Clock_Startup_ErrorCallback();
 145:Generated_Source\PSoC5/cyfitter_cfg.c **** #else
 146:Generated_Source\PSoC5/cyfitter_cfg.c **** 	/*  If not using CY_CFG_CLOCK_STARTUP_ERROR_CALLBACK, place your clock startup code here. */
 147:Generated_Source\PSoC5/cyfitter_cfg.c ****     /* `#START CyClockStartupError` */
 148:Generated_Source\PSoC5/cyfitter_cfg.c **** 
 149:Generated_Source\PSoC5/cyfitter_cfg.c ****     /* If we have a clock startup error (bad MHz crystal, PLL lock, etc.),  */
 150:Generated_Source\PSoC5/cyfitter_cfg.c ****     /* we will end up here to allow the customer to implement something to  */
 151:Generated_Source\PSoC5/cyfitter_cfg.c ****     /* deal with the clock condition.                                       */
 152:Generated_Source\PSoC5/cyfitter_cfg.c **** 
 153:Generated_Source\PSoC5/cyfitter_cfg.c ****     /* `#END` */
 154:Generated_Source\PSoC5/cyfitter_cfg.c **** 
 155:Generated_Source\PSoC5/cyfitter_cfg.c ****     /* If nothing else, stop here since the clocks have not started         */
 156:Generated_Source\PSoC5/cyfitter_cfg.c ****     /* correctly.                                                           */
 157:Generated_Source\PSoC5/cyfitter_cfg.c ****     while(1) {}
 151              		.loc 1 157 0 discriminator 1
 152 000a FEE7     		b	.L5
 153              		.cfi_endproc
 154              	.LFE3:
 155              		.size	CyClockStartupError, .-CyClockStartupError
 156              		.section	.text.cfg_dma_init,"ax",%progbits
 157              		.align	2
 158              		.thumb
 159              		.thumb_func
 160              		.type	cfg_dma_init, %function
 161              	cfg_dma_init:
 162              	.LFB4:
 158:Generated_Source\PSoC5/cyfitter_cfg.c **** #endif /* CY_CFG_CLOCK_STARTUP_ERROR_CALLBACK */ 
 159:Generated_Source\PSoC5/cyfitter_cfg.c **** }
 160:Generated_Source\PSoC5/cyfitter_cfg.c **** #endif
 161:Generated_Source\PSoC5/cyfitter_cfg.c **** 
 162:Generated_Source\PSoC5/cyfitter_cfg.c **** /* IDMUX Address: CYREG_IDMUX_DRQ_CTL0 Size (bytes): 6 */
 163:Generated_Source\PSoC5/cyfitter_cfg.c **** #define BS_IDMUX_VAL ((const uint8 CYFAR *)0x48000000u)
 164:Generated_Source\PSoC5/cyfitter_cfg.c **** 
 165:Generated_Source\PSoC5/cyfitter_cfg.c **** /* IOPORT_1 Address: CYDEV_PRTDSI_PRT1_BASE Size (bytes): 7 */
 166:Generated_Source\PSoC5/cyfitter_cfg.c **** #define BS_IOPORT_1_VAL ((const uint8 CYFAR *)0x48000008u)
 167:Generated_Source\PSoC5/cyfitter_cfg.c **** 
 168:Generated_Source\PSoC5/cyfitter_cfg.c **** /* IDMUX_IRQ Address: CYREG_IDMUX_IRQ_CTL0 Size (bytes): 8 */
 169:Generated_Source\PSoC5/cyfitter_cfg.c **** #define BS_IDMUX_IRQ_VAL ((const uint8 CYFAR *)0x48000010u)
 170:Generated_Source\PSoC5/cyfitter_cfg.c **** 
 171:Generated_Source\PSoC5/cyfitter_cfg.c **** /* TMR0 Address: CYREG_TMR0_CFG0 Size (bytes): 12 */
 172:Generated_Source\PSoC5/cyfitter_cfg.c **** #define BS_TMR0_VAL ((const uint8 CYFAR *)0x48000018u)
 173:Generated_Source\PSoC5/cyfitter_cfg.c **** 
 174:Generated_Source\PSoC5/cyfitter_cfg.c **** /* DAC3 Address: CYREG_DAC3_SW0 Size (bytes): 8 */
 175:Generated_Source\PSoC5/cyfitter_cfg.c **** #define BS_DAC3_VAL ((const uint8 CYFAR *)0x48000024u)
 176:Generated_Source\PSoC5/cyfitter_cfg.c **** 
 177:Generated_Source\PSoC5/cyfitter_cfg.c **** /* UDB_0_2_1_CONFIG Address: CYDEV_UCFG_B0_P4_U0_BASE Size (bytes): 128 */
 178:Generated_Source\PSoC5/cyfitter_cfg.c **** #define BS_UDB_0_2_1_CONFIG_VAL ((const uint8 CYFAR *)0x4800002Cu)
 179:Generated_Source\PSoC5/cyfitter_cfg.c **** 
 180:Generated_Source\PSoC5/cyfitter_cfg.c **** /* UDB_0_2_0_CONFIG Address: CYDEV_UCFG_B0_P4_U1_BASE Size (bytes): 128 */
ARM GAS  C:\Users\RAPHAE~1\AppData\Local\Temp\cclOmceu.s 			page 7


 181:Generated_Source\PSoC5/cyfitter_cfg.c **** #define BS_UDB_0_2_0_CONFIG_VAL ((const uint8 CYFAR *)0x480000ACu)
 182:Generated_Source\PSoC5/cyfitter_cfg.c **** 
 183:Generated_Source\PSoC5/cyfitter_cfg.c **** /* UDB_0_1_1_CONFIG Address: CYDEV_UCFG_B1_P4_U0_BASE Size (bytes): 128 */
 184:Generated_Source\PSoC5/cyfitter_cfg.c **** #define BS_UDB_0_1_1_CONFIG_VAL ((const uint8 CYFAR *)0x4800012Cu)
 185:Generated_Source\PSoC5/cyfitter_cfg.c **** 
 186:Generated_Source\PSoC5/cyfitter_cfg.c **** /* UDB_0_1_0_CONFIG Address: CYDEV_UCFG_B1_P4_U1_BASE Size (bytes): 128 */
 187:Generated_Source\PSoC5/cyfitter_cfg.c **** #define BS_UDB_0_1_0_CONFIG_VAL ((const uint8 CYFAR *)0x480001ACu)
 188:Generated_Source\PSoC5/cyfitter_cfg.c **** 
 189:Generated_Source\PSoC5/cyfitter_cfg.c **** /* UWRK_B0_WRK_STATCTL_BITS Address: CYDEV_UWRK_UWRK8_B0_BASE + 0x00000070u Size (bytes): 32 */
 190:Generated_Source\PSoC5/cyfitter_cfg.c **** #define BS_UWRK_B0_WRK_STATCTL_BITS_VAL ((const uint8 CYFAR *)0x4800022Cu)
 191:Generated_Source\PSoC5/cyfitter_cfg.c **** 
 192:Generated_Source\PSoC5/cyfitter_cfg.c **** /* UWRK_B1_WRK_STATCTL_BITS Address: CYDEV_UWRK_UWRK8_B1_BASE + 0x00000070u Size (bytes): 32 */
 193:Generated_Source\PSoC5/cyfitter_cfg.c **** #define BS_UWRK_B1_WRK_STATCTL_BITS_VAL ((const uint8 CYFAR *)0x4800024Cu)
 194:Generated_Source\PSoC5/cyfitter_cfg.c **** 
 195:Generated_Source\PSoC5/cyfitter_cfg.c **** /* UCFG_BCTL1 Address: CYREG_BCTL1_MDCLK_EN Size (bytes): 16 */
 196:Generated_Source\PSoC5/cyfitter_cfg.c **** #define BS_UCFG_BCTL1_VAL ((const uint8 CYFAR *)0x4800026Cu)
 197:Generated_Source\PSoC5/cyfitter_cfg.c **** 
 198:Generated_Source\PSoC5/cyfitter_cfg.c **** /* UCFG_BCTL0 Address: CYREG_BCTL0_MDCLK_EN Size (bytes): 16 */
 199:Generated_Source\PSoC5/cyfitter_cfg.c **** #define BS_UCFG_BCTL0_VAL ((const uint8 CYFAR *)0x4800027Cu)
 200:Generated_Source\PSoC5/cyfitter_cfg.c **** 
 201:Generated_Source\PSoC5/cyfitter_cfg.c **** /* DSI0_0_HV_ROUTING Address: CYDEV_UCFG_DSI13_BASE + 0x00000080u Size (bytes): 128 */
 202:Generated_Source\PSoC5/cyfitter_cfg.c **** #define BS_DSI0_0_HV_ROUTING_VAL ((const uint8 CYFAR *)0x4800028Cu)
 203:Generated_Source\PSoC5/cyfitter_cfg.c **** 
 204:Generated_Source\PSoC5/cyfitter_cfg.c **** /* DSISWITCH_0_1 Address: CYDEV_UCFG_DSI12_BASE Size (bytes): 128 */
 205:Generated_Source\PSoC5/cyfitter_cfg.c **** #define BS_DSISWITCH_0_1_VAL ((const uint8 CYFAR *)0x4800030Cu)
 206:Generated_Source\PSoC5/cyfitter_cfg.c **** 
 207:Generated_Source\PSoC5/cyfitter_cfg.c **** /* DSI0_1_HV_ROUTING Address: CYDEV_UCFG_DSI12_BASE + 0x00000080u Size (bytes): 128 */
 208:Generated_Source\PSoC5/cyfitter_cfg.c **** #define BS_DSI0_1_HV_ROUTING_VAL ((const uint8 CYFAR *)0x4800038Cu)
 209:Generated_Source\PSoC5/cyfitter_cfg.c **** 
 210:Generated_Source\PSoC5/cyfitter_cfg.c **** /* DSISWITCH_0_2 Address: CYDEV_UCFG_DSI7_BASE Size (bytes): 128 */
 211:Generated_Source\PSoC5/cyfitter_cfg.c **** #define BS_DSISWITCH_0_2_VAL ((const uint8 CYFAR *)0x4800040Cu)
 212:Generated_Source\PSoC5/cyfitter_cfg.c **** 
 213:Generated_Source\PSoC5/cyfitter_cfg.c **** /* DSI0_2_HV_ROUTING Address: CYDEV_UCFG_DSI7_BASE + 0x00000080u Size (bytes): 128 */
 214:Generated_Source\PSoC5/cyfitter_cfg.c **** #define BS_DSI0_2_HV_ROUTING_VAL ((const uint8 CYFAR *)0x4800048Cu)
 215:Generated_Source\PSoC5/cyfitter_cfg.c **** 
 216:Generated_Source\PSoC5/cyfitter_cfg.c **** /* UDB_1_0_HV_ROUTING Address: CYDEV_UCFG_B1_P5_ROUTE_BASE + 0x00000080u Size (bytes): 128 */
 217:Generated_Source\PSoC5/cyfitter_cfg.c **** #define BS_UDB_1_0_HV_ROUTING_VAL ((const uint8 CYFAR *)0x4800050Cu)
 218:Generated_Source\PSoC5/cyfitter_cfg.c **** 
 219:Generated_Source\PSoC5/cyfitter_cfg.c **** /* UDB_2_0_HV_ROUTING Address: CYDEV_UCFG_B1_P2_ROUTE_BASE + 0x00000080u Size (bytes): 128 */
 220:Generated_Source\PSoC5/cyfitter_cfg.c **** #define BS_UDB_2_0_HV_ROUTING_VAL ((const uint8 CYFAR *)0x4800058Cu)
 221:Generated_Source\PSoC5/cyfitter_cfg.c **** 
 222:Generated_Source\PSoC5/cyfitter_cfg.c **** /* UDBSWITCH_0_1 Address: CYDEV_UCFG_B1_P4_ROUTE_BASE Size (bytes): 128 */
 223:Generated_Source\PSoC5/cyfitter_cfg.c **** #define BS_UDBSWITCH_0_1_VAL ((const uint8 CYFAR *)0x4800060Cu)
 224:Generated_Source\PSoC5/cyfitter_cfg.c **** 
 225:Generated_Source\PSoC5/cyfitter_cfg.c **** /* UDB_1_1_HV_ROUTING Address: CYDEV_UCFG_B1_P4_ROUTE_BASE + 0x00000080u Size (bytes): 128 */
 226:Generated_Source\PSoC5/cyfitter_cfg.c **** #define BS_UDB_1_1_HV_ROUTING_VAL ((const uint8 CYFAR *)0x4800068Cu)
 227:Generated_Source\PSoC5/cyfitter_cfg.c **** 
 228:Generated_Source\PSoC5/cyfitter_cfg.c **** /* UDB_2_1_HV_ROUTING Address: CYDEV_UCFG_B1_P3_ROUTE_BASE + 0x00000080u Size (bytes): 128 */
 229:Generated_Source\PSoC5/cyfitter_cfg.c **** #define BS_UDB_2_1_HV_ROUTING_VAL ((const uint8 CYFAR *)0x4800070Cu)
 230:Generated_Source\PSoC5/cyfitter_cfg.c **** 
 231:Generated_Source\PSoC5/cyfitter_cfg.c **** /* UDBSWITCH_0_2 Address: CYDEV_UCFG_B0_P4_ROUTE_BASE Size (bytes): 128 */
 232:Generated_Source\PSoC5/cyfitter_cfg.c **** #define BS_UDBSWITCH_0_2_VAL ((const uint8 CYFAR *)0x4800078Cu)
 233:Generated_Source\PSoC5/cyfitter_cfg.c **** 
 234:Generated_Source\PSoC5/cyfitter_cfg.c **** /* UDB_1_2_HV_ROUTING Address: CYDEV_UCFG_B0_P4_ROUTE_BASE + 0x00000080u Size (bytes): 128 */
 235:Generated_Source\PSoC5/cyfitter_cfg.c **** #define BS_UDB_1_2_HV_ROUTING_VAL ((const uint8 CYFAR *)0x4800080Cu)
 236:Generated_Source\PSoC5/cyfitter_cfg.c **** 
 237:Generated_Source\PSoC5/cyfitter_cfg.c **** /* UDB_2_2_HV_ROUTING Address: CYDEV_UCFG_B0_P3_ROUTE_BASE + 0x00000080u Size (bytes): 128 */
ARM GAS  C:\Users\RAPHAE~1\AppData\Local\Temp\cclOmceu.s 			page 8


 238:Generated_Source\PSoC5/cyfitter_cfg.c **** #define BS_UDB_2_2_HV_ROUTING_VAL ((const uint8 CYFAR *)0x4800088Cu)
 239:Generated_Source\PSoC5/cyfitter_cfg.c **** 
 240:Generated_Source\PSoC5/cyfitter_cfg.c **** /* DSI3_0_HV_ROUTING Address: CYDEV_UCFG_DSI9_BASE + 0x00000080u Size (bytes): 128 */
 241:Generated_Source\PSoC5/cyfitter_cfg.c **** #define BS_DSI3_0_HV_ROUTING_VAL ((const uint8 CYFAR *)0x4800090Cu)
 242:Generated_Source\PSoC5/cyfitter_cfg.c **** 
 243:Generated_Source\PSoC5/cyfitter_cfg.c **** /* DSISWITCH_1_1 Address: CYDEV_UCFG_DSI8_BASE Size (bytes): 128 */
 244:Generated_Source\PSoC5/cyfitter_cfg.c **** #define BS_DSISWITCH_1_1_VAL ((const uint8 CYFAR *)0x4800098Cu)
 245:Generated_Source\PSoC5/cyfitter_cfg.c **** 
 246:Generated_Source\PSoC5/cyfitter_cfg.c **** /* DSI3_1_HV_ROUTING Address: CYDEV_UCFG_DSI8_BASE + 0x00000080u Size (bytes): 128 */
 247:Generated_Source\PSoC5/cyfitter_cfg.c **** #define BS_DSI3_1_HV_ROUTING_VAL ((const uint8 CYFAR *)0x48000A0Cu)
 248:Generated_Source\PSoC5/cyfitter_cfg.c **** 
 249:Generated_Source\PSoC5/cyfitter_cfg.c **** /* DSI3_2_HV_ROUTING Address: CYDEV_UCFG_DSI3_BASE + 0x00000080u Size (bytes): 128 */
 250:Generated_Source\PSoC5/cyfitter_cfg.c **** #define BS_DSI3_2_HV_ROUTING_VAL ((const uint8 CYFAR *)0x48000A8Cu)
 251:Generated_Source\PSoC5/cyfitter_cfg.c **** 
 252:Generated_Source\PSoC5/cyfitter_cfg.c **** /* DSI3_3_HV_ROUTING Address: CYDEV_UCFG_DSI2_BASE + 0x00000080u Size (bytes): 128 */
 253:Generated_Source\PSoC5/cyfitter_cfg.c **** #define BS_DSI3_3_HV_ROUTING_VAL ((const uint8 CYFAR *)0x48000B0Cu)
 254:Generated_Source\PSoC5/cyfitter_cfg.c **** 
 255:Generated_Source\PSoC5/cyfitter_cfg.c **** /* DSI3_4_HV_ROUTING Address: CYDEV_UCFG_DSI1_BASE + 0x00000080u Size (bytes): 128 */
 256:Generated_Source\PSoC5/cyfitter_cfg.c **** #define BS_DSI3_4_HV_ROUTING_VAL ((const uint8 CYFAR *)0x48000B8Cu)
 257:Generated_Source\PSoC5/cyfitter_cfg.c **** 
 258:Generated_Source\PSoC5/cyfitter_cfg.c **** /* DSISWITCH_1_5 Address: CYDEV_UCFG_DSI0_BASE Size (bytes): 128 */
 259:Generated_Source\PSoC5/cyfitter_cfg.c **** #define BS_DSISWITCH_1_5_VAL ((const uint8 CYFAR *)0x48000C0Cu)
 260:Generated_Source\PSoC5/cyfitter_cfg.c **** 
 261:Generated_Source\PSoC5/cyfitter_cfg.c **** /* DSI3_5_HV_ROUTING Address: CYDEV_UCFG_DSI0_BASE + 0x00000080u Size (bytes): 128 */
 262:Generated_Source\PSoC5/cyfitter_cfg.c **** #define BS_DSI3_5_HV_ROUTING_VAL ((const uint8 CYFAR *)0x48000C8Cu)
 263:Generated_Source\PSoC5/cyfitter_cfg.c **** 
 264:Generated_Source\PSoC5/cyfitter_cfg.c **** /* IOPINS0_0 Address: CYREG_PRT0_DM0 Size (bytes): 8 */
 265:Generated_Source\PSoC5/cyfitter_cfg.c **** #define BS_IOPINS0_0_VAL ((const uint8 CYFAR *)0x48000D0Cu)
 266:Generated_Source\PSoC5/cyfitter_cfg.c **** 
 267:Generated_Source\PSoC5/cyfitter_cfg.c **** /* IOPINS0_1 Address: CYREG_PRT1_DR Size (bytes): 10 */
 268:Generated_Source\PSoC5/cyfitter_cfg.c **** #define BS_IOPINS0_1_VAL ((const uint8 CYFAR *)0x48000D14u)
 269:Generated_Source\PSoC5/cyfitter_cfg.c **** 
 270:Generated_Source\PSoC5/cyfitter_cfg.c **** 
 271:Generated_Source\PSoC5/cyfitter_cfg.c **** /*******************************************************************************
 272:Generated_Source\PSoC5/cyfitter_cfg.c **** * Function Name: cfg_dma_init
 273:Generated_Source\PSoC5/cyfitter_cfg.c **** ********************************************************************************
 274:Generated_Source\PSoC5/cyfitter_cfg.c **** * Summary:
 275:Generated_Source\PSoC5/cyfitter_cfg.c **** *  This function is used to copy device configuration data from constant values
 276:Generated_Source\PSoC5/cyfitter_cfg.c **** *  stored in memory into the proper chip configuration registers using DMA.  It
 277:Generated_Source\PSoC5/cyfitter_cfg.c **** *  pulls data out of the CFG_TD_LISTs to know exactly how/what to configure.
 278:Generated_Source\PSoC5/cyfitter_cfg.c **** *
 279:Generated_Source\PSoC5/cyfitter_cfg.c **** * Parameters:  
 280:Generated_Source\PSoC5/cyfitter_cfg.c **** *   void
 281:Generated_Source\PSoC5/cyfitter_cfg.c **** *
 282:Generated_Source\PSoC5/cyfitter_cfg.c **** * Return:
 283:Generated_Source\PSoC5/cyfitter_cfg.c **** *   void
 284:Generated_Source\PSoC5/cyfitter_cfg.c **** *
 285:Generated_Source\PSoC5/cyfitter_cfg.c **** *******************************************************************************/
 286:Generated_Source\PSoC5/cyfitter_cfg.c **** static void cfg_dma_init(void);
 287:Generated_Source\PSoC5/cyfitter_cfg.c **** static void cfg_dma_init(void)
 288:Generated_Source\PSoC5/cyfitter_cfg.c **** {
 163              		.loc 1 288 0
 164              		.cfi_startproc
 165              		@ args = 0, pretend = 0, frame = 8
 166              		@ frame_needed = 1, uses_anonymous_args = 0
 167 0000 80B5     		push	{r7, lr}
 168              		.cfi_def_cfa_offset 8
ARM GAS  C:\Users\RAPHAE~1\AppData\Local\Temp\cclOmceu.s 			page 9


 169              		.cfi_offset 7, -8
 170              		.cfi_offset 14, -4
 171 0002 82B0     		sub	sp, sp, #8
 172              		.cfi_def_cfa_offset 16
 173 0004 00AF     		add	r7, sp, #0
 174              		.cfi_def_cfa_register 7
 289:Generated_Source\PSoC5/cyfitter_cfg.c **** 	/* TD structure for little-endian systems. Does not require endian swap */
 290:Generated_Source\PSoC5/cyfitter_cfg.c **** 	CYPACKED struct td_t {
 291:Generated_Source\PSoC5/cyfitter_cfg.c **** 		uint16 size;
 292:Generated_Source\PSoC5/cyfitter_cfg.c **** 		uint8 next_td_ptr;
 293:Generated_Source\PSoC5/cyfitter_cfg.c **** 		uint8 flags;
 294:Generated_Source\PSoC5/cyfitter_cfg.c **** 		uint16 src;
 295:Generated_Source\PSoC5/cyfitter_cfg.c **** 		uint16 dest;
 296:Generated_Source\PSoC5/cyfitter_cfg.c **** 	} CYPACKED_ATTR;
 297:Generated_Source\PSoC5/cyfitter_cfg.c **** 
 298:Generated_Source\PSoC5/cyfitter_cfg.c **** 	/* PHUB_CH1_CFGMEM_CFG0/1 initialization data */
 299:Generated_Source\PSoC5/cyfitter_cfg.c **** 	DMAINITSEC static const uint8 CYCODE CH1_ADDR_DATA0[] = { 0x01u, 0x00u, 0x00u, 0x00u, 0x00u, 0x20u
 300:Generated_Source\PSoC5/cyfitter_cfg.c **** 
 301:Generated_Source\PSoC5/cyfitter_cfg.c **** 	/* PHUB_CH2_CFGMEM_CFG0/1 initialization data */
 302:Generated_Source\PSoC5/cyfitter_cfg.c **** 	DMAINITSEC static const uint8 CYCODE CH2_ADDR_DATA0[] = { 0x01u, 0x00u, 0x00u, 0x00u, 0x00u, 0x20u
 303:Generated_Source\PSoC5/cyfitter_cfg.c **** 
 304:Generated_Source\PSoC5/cyfitter_cfg.c **** 	/* PHUB_CH5_CFGMEM_CFG0/1 initialization data */
 305:Generated_Source\PSoC5/cyfitter_cfg.c **** 	DMAINITSEC static const uint8 CYCODE CH5_ADDR_DATA0[] = { 0x01u, 0x00u, 0x00u, 0x00u, 0x00u, 0x48u
 306:Generated_Source\PSoC5/cyfitter_cfg.c **** 
 307:Generated_Source\PSoC5/cyfitter_cfg.c **** 	/* PHUB_CH6_CFGMEM_CFG0/1 initialization data */
 308:Generated_Source\PSoC5/cyfitter_cfg.c **** 	DMAINITSEC static const uint8 CYCODE CH6_ADDR_DATA0[] = { 0x01u, 0x00u, 0x00u, 0x00u, 0x00u, 0x48u
 309:Generated_Source\PSoC5/cyfitter_cfg.c **** 
 310:Generated_Source\PSoC5/cyfitter_cfg.c **** 	/* Initialization data for each DMA channel's TD registers */
 311:Generated_Source\PSoC5/cyfitter_cfg.c **** 	DMAINITSEC static const uint8 CYCODE DMA_TD_START_CMD[] = { 0x01u, 0x00u, 0x00u, 0x00u, 0x01u };
 312:Generated_Source\PSoC5/cyfitter_cfg.c **** 
 313:Generated_Source\PSoC5/cyfitter_cfg.c **** 	CYALIGNED static uint32 CYXDATA DMA_ZERO_VAL;
 314:Generated_Source\PSoC5/cyfitter_cfg.c **** 
 315:Generated_Source\PSoC5/cyfitter_cfg.c **** 	/* This table holds all of the initialization data necessary for the DMA
 316:Generated_Source\PSoC5/cyfitter_cfg.c **** 	   process to transfer data from the source location to the destination. */
 317:Generated_Source\PSoC5/cyfitter_cfg.c **** 	/* Source addresses can be relocated, but only when in 32bit addresses.
 318:Generated_Source\PSoC5/cyfitter_cfg.c **** 	   Because the standard TD table only has 16bit addresses, we generate a
 319:Generated_Source\PSoC5/cyfitter_cfg.c **** 	   separate CFG_TD_ADDR table for the source addresses that supports 32bit
 320:Generated_Source\PSoC5/cyfitter_cfg.c **** 	   addresses. */
 321:Generated_Source\PSoC5/cyfitter_cfg.c **** 	DMAINITSEC static const struct td_t CYCODE CFG_TD_LIST0[] = {
 322:Generated_Source\PSoC5/cyfitter_cfg.c **** 		/* Size, Next, Flags, Source, Destination */
 323:Generated_Source\PSoC5/cyfitter_cfg.c **** 		{ 8u, 0x02u, 0x23u, (uint16)(uint32)(0u), (uint16)(CYREG_PHUB_CFGMEM1_CFG0) },	/* TD 1 */
 324:Generated_Source\PSoC5/cyfitter_cfg.c **** 		{ 8u, 0x03u, 0x23u, (uint16)(uint32)(0u), (uint16)(CYREG_PHUB_CFGMEM2_CFG0) },	/* TD 2 */
 325:Generated_Source\PSoC5/cyfitter_cfg.c **** 		{ 8u, 0x04u, 0x23u, (uint16)(uint32)(0u), (uint16)(CYREG_PHUB_CFGMEM5_CFG0) },	/* TD 3 */
 326:Generated_Source\PSoC5/cyfitter_cfg.c **** 		{ 8u, 0x05u, 0x23u, (uint16)(uint32)(0u), (uint16)(CYREG_PHUB_CFGMEM6_CFG0) },	/* TD 4 */
 327:Generated_Source\PSoC5/cyfitter_cfg.c **** 		{ 5u, 0x06u, 0x23u, (uint16)(uint32)(0u), (uint16)(CYREG_PHUB_CH1_BASIC_CFG) },	/* TD 5 */
 328:Generated_Source\PSoC5/cyfitter_cfg.c **** 		{ 5u, 0x07u, 0x23u, (uint16)(uint32)(0u), (uint16)(CYREG_PHUB_CH2_BASIC_CFG) },	/* TD 6 */
 329:Generated_Source\PSoC5/cyfitter_cfg.c **** 		{ 5u, 0x08u, 0x23u, (uint16)(uint32)(0u), (uint16)(CYREG_PHUB_CH5_BASIC_CFG) },	/* TD 7 */
 330:Generated_Source\PSoC5/cyfitter_cfg.c **** 		{ 5u, 0xFEu, 0x23u, (uint16)(uint32)(0u), (uint16)(CYREG_PHUB_CH6_BASIC_CFG) },	/* TD 8 */
 331:Generated_Source\PSoC5/cyfitter_cfg.c **** 		{ 16u, 0x0Au, 0x22u, (uint16)(uint32)(0u), (uint16)(CYREG_PRT2_DR) },	/* TD 9 */
 332:Generated_Source\PSoC5/cyfitter_cfg.c **** 		{ 48u, 0x0Bu, 0x22u, (uint16)(uint32)(0u), (uint16)(CYREG_PRT4_DR) },	/* TD 10 */
 333:Generated_Source\PSoC5/cyfitter_cfg.c **** 		{ 16u, 0x0Cu, 0x22u, (uint16)(uint32)(0u), (uint16)(CYREG_PRT12_DR) },	/* TD 11 */
 334:Generated_Source\PSoC5/cyfitter_cfg.c **** 		{ 16u, 0xFEu, 0x22u, (uint16)(uint32)(0u), (uint16)(CYREG_PRT15_DR) },	/* TD 12 */
 335:Generated_Source\PSoC5/cyfitter_cfg.c **** 		{ 1920u, 0x0Eu, 0x22u, (uint16)(uint32)(0u), (uint16)(CYDEV_UCFG_B0_P0_U0_BASE) },	/* TD 13 */
 336:Generated_Source\PSoC5/cyfitter_cfg.c **** 		{ 1536u, 0x0Fu, 0x22u, (uint16)(uint32)(0u), (uint16)(CYDEV_UCFG_B0_P5_U0_BASE) },	/* TD 14 */
 337:Generated_Source\PSoC5/cyfitter_cfg.c **** 		{ 384u, 0x10u, 0x22u, (uint16)(uint32)(0u), (uint16)(CYDEV_UCFG_B1_P2_U0_BASE) },	/* TD 15 */
 338:Generated_Source\PSoC5/cyfitter_cfg.c **** 		{ 384u, 0x11u, 0x22u, (uint16)(uint32)(0u), (uint16)(CYDEV_UCFG_B1_P3_U0_BASE) },	/* TD 16 */
 339:Generated_Source\PSoC5/cyfitter_cfg.c **** 		{ 384u, 0x12u, 0x22u, (uint16)(uint32)(0u), (uint16)(CYDEV_UCFG_B1_P5_U0_BASE) },	/* TD 17 */
ARM GAS  C:\Users\RAPHAE~1\AppData\Local\Temp\cclOmceu.s 			page 10


 340:Generated_Source\PSoC5/cyfitter_cfg.c **** 		{ 128u, 0x13u, 0x22u, (uint16)(uint32)(0u), (uint16)(CYDEV_UCFG_DSI1_BASE) },	/* TD 18 */
 341:Generated_Source\PSoC5/cyfitter_cfg.c **** 		{ 128u, 0x14u, 0x22u, (uint16)(uint32)(0u), (uint16)(CYDEV_UCFG_DSI2_BASE) },	/* TD 19 */
 342:Generated_Source\PSoC5/cyfitter_cfg.c **** 		{ 128u, 0x15u, 0x22u, (uint16)(uint32)(0u), (uint16)(CYDEV_UCFG_DSI3_BASE) },	/* TD 20 */
 343:Generated_Source\PSoC5/cyfitter_cfg.c **** 		{ 768u, 0x16u, 0x22u, (uint16)(uint32)(0u), (uint16)(CYDEV_UCFG_DSI4_BASE) },	/* TD 21 */
 344:Generated_Source\PSoC5/cyfitter_cfg.c **** 		{ 128u, 0x17u, 0x22u, (uint16)(uint32)(0u), (uint16)(CYDEV_UCFG_DSI9_BASE) },	/* TD 22 */
 345:Generated_Source\PSoC5/cyfitter_cfg.c **** 		{ 128u, 0xFEu, 0x22u, (uint16)(uint32)(0u), (uint16)(CYDEV_UCFG_DSI13_BASE) },	/* TD 23 */
 346:Generated_Source\PSoC5/cyfitter_cfg.c **** 		{ 7u, 0x19u, 0x23u, (uint16)(uint32)(0u), (uint16)(CYDEV_PRTDSI_PRT1_BASE) },	/* TD 24 */
 347:Generated_Source\PSoC5/cyfitter_cfg.c **** 		{ 12u, 0x1Au, 0x23u, (uint16)(uint32)(0u), (uint16)(CYREG_TMR0_CFG0) },	/* TD 25 */
 348:Generated_Source\PSoC5/cyfitter_cfg.c **** 		{ 8u, 0x1Bu, 0x23u, (uint16)(uint32)(0u), (uint16)(CYREG_DAC3_SW0) },	/* TD 26 */
 349:Generated_Source\PSoC5/cyfitter_cfg.c **** 		{ 32u, 0x1Cu, 0x23u, (uint16)(uint32)(0u), (uint16)(CYDEV_UWRK_UWRK8_B0_BASE + 0x00000070u) },	/*
 350:Generated_Source\PSoC5/cyfitter_cfg.c **** 		{ 32u, 0xFEu, 0x23u, (uint16)(uint32)(0u), (uint16)(CYDEV_UWRK_UWRK8_B1_BASE + 0x00000070u) },	/*
 351:Generated_Source\PSoC5/cyfitter_cfg.c **** 		{ 8u, 0x1Eu, 0x23u, (uint16)(uint32)(0u), (uint16)(CYREG_IDMUX_IRQ_CTL0) },	/* TD 29 */
 352:Generated_Source\PSoC5/cyfitter_cfg.c **** 		{ 128u, 0x1Fu, 0x23u, (uint16)(uint32)(0u), (uint16)(CYDEV_UCFG_B0_P4_U0_BASE) },	/* TD 30 */
 353:Generated_Source\PSoC5/cyfitter_cfg.c **** 		{ 128u, 0x20u, 0x23u, (uint16)(uint32)(0u), (uint16)(CYDEV_UCFG_B0_P4_U1_BASE) },	/* TD 31 */
 354:Generated_Source\PSoC5/cyfitter_cfg.c **** 		{ 128u, 0x21u, 0x23u, (uint16)(uint32)(0u), (uint16)(CYDEV_UCFG_B1_P4_U0_BASE) },	/* TD 32 */
 355:Generated_Source\PSoC5/cyfitter_cfg.c **** 		{ 128u, 0x22u, 0x23u, (uint16)(uint32)(0u), (uint16)(CYDEV_UCFG_B1_P4_U1_BASE) },	/* TD 33 */
 356:Generated_Source\PSoC5/cyfitter_cfg.c **** 		{ 16u, 0x23u, 0x23u, (uint16)(uint32)(0u), (uint16)(CYREG_BCTL1_MDCLK_EN) },	/* TD 34 */
 357:Generated_Source\PSoC5/cyfitter_cfg.c **** 		{ 16u, 0x24u, 0x23u, (uint16)(uint32)(0u), (uint16)(CYREG_BCTL0_MDCLK_EN) },	/* TD 35 */
 358:Generated_Source\PSoC5/cyfitter_cfg.c **** 		{ 128u, 0x25u, 0x23u, (uint16)(uint32)(0u), (uint16)(CYDEV_UCFG_DSI13_BASE + 0x00000080u) },	/* T
 359:Generated_Source\PSoC5/cyfitter_cfg.c **** 		{ 128u, 0x26u, 0x23u, (uint16)(uint32)(0u), (uint16)(CYDEV_UCFG_DSI12_BASE) },	/* TD 37 */
 360:Generated_Source\PSoC5/cyfitter_cfg.c **** 		{ 128u, 0x27u, 0x23u, (uint16)(uint32)(0u), (uint16)(CYDEV_UCFG_DSI12_BASE + 0x00000080u) },	/* T
 361:Generated_Source\PSoC5/cyfitter_cfg.c **** 		{ 128u, 0x28u, 0x23u, (uint16)(uint32)(0u), (uint16)(CYDEV_UCFG_DSI7_BASE) },	/* TD 39 */
 362:Generated_Source\PSoC5/cyfitter_cfg.c **** 		{ 128u, 0x29u, 0x23u, (uint16)(uint32)(0u), (uint16)(CYDEV_UCFG_DSI7_BASE + 0x00000080u) },	/* TD
 363:Generated_Source\PSoC5/cyfitter_cfg.c **** 		{ 128u, 0x2Au, 0x23u, (uint16)(uint32)(0u), (uint16)(CYDEV_UCFG_B1_P5_ROUTE_BASE + 0x00000080u) }
 364:Generated_Source\PSoC5/cyfitter_cfg.c **** 		{ 128u, 0x2Bu, 0x23u, (uint16)(uint32)(0u), (uint16)(CYDEV_UCFG_B1_P2_ROUTE_BASE + 0x00000080u) }
 365:Generated_Source\PSoC5/cyfitter_cfg.c **** 		{ 128u, 0x2Cu, 0x23u, (uint16)(uint32)(0u), (uint16)(CYDEV_UCFG_B1_P4_ROUTE_BASE) },	/* TD 43 */
 366:Generated_Source\PSoC5/cyfitter_cfg.c **** 		{ 128u, 0x2Du, 0x23u, (uint16)(uint32)(0u), (uint16)(CYDEV_UCFG_B1_P4_ROUTE_BASE + 0x00000080u) }
 367:Generated_Source\PSoC5/cyfitter_cfg.c **** 		{ 128u, 0x2Eu, 0x23u, (uint16)(uint32)(0u), (uint16)(CYDEV_UCFG_B1_P3_ROUTE_BASE + 0x00000080u) }
 368:Generated_Source\PSoC5/cyfitter_cfg.c **** 		{ 128u, 0x2Fu, 0x23u, (uint16)(uint32)(0u), (uint16)(CYDEV_UCFG_B0_P4_ROUTE_BASE) },	/* TD 46 */
 369:Generated_Source\PSoC5/cyfitter_cfg.c **** 		{ 128u, 0x30u, 0x23u, (uint16)(uint32)(0u), (uint16)(CYDEV_UCFG_B0_P4_ROUTE_BASE + 0x00000080u) }
 370:Generated_Source\PSoC5/cyfitter_cfg.c **** 		{ 128u, 0x31u, 0x23u, (uint16)(uint32)(0u), (uint16)(CYDEV_UCFG_B0_P3_ROUTE_BASE + 0x00000080u) }
 371:Generated_Source\PSoC5/cyfitter_cfg.c **** 		{ 128u, 0x32u, 0x23u, (uint16)(uint32)(0u), (uint16)(CYDEV_UCFG_DSI9_BASE + 0x00000080u) },	/* TD
 372:Generated_Source\PSoC5/cyfitter_cfg.c **** 		{ 128u, 0x33u, 0x23u, (uint16)(uint32)(0u), (uint16)(CYDEV_UCFG_DSI8_BASE) },	/* TD 50 */
 373:Generated_Source\PSoC5/cyfitter_cfg.c **** 		{ 128u, 0x34u, 0x23u, (uint16)(uint32)(0u), (uint16)(CYDEV_UCFG_DSI8_BASE + 0x00000080u) },	/* TD
 374:Generated_Source\PSoC5/cyfitter_cfg.c **** 		{ 128u, 0x35u, 0x23u, (uint16)(uint32)(0u), (uint16)(CYDEV_UCFG_DSI3_BASE + 0x00000080u) },	/* TD
 375:Generated_Source\PSoC5/cyfitter_cfg.c **** 		{ 128u, 0x36u, 0x23u, (uint16)(uint32)(0u), (uint16)(CYDEV_UCFG_DSI2_BASE + 0x00000080u) },	/* TD
 376:Generated_Source\PSoC5/cyfitter_cfg.c **** 		{ 128u, 0x37u, 0x23u, (uint16)(uint32)(0u), (uint16)(CYDEV_UCFG_DSI1_BASE + 0x00000080u) },	/* TD
 377:Generated_Source\PSoC5/cyfitter_cfg.c **** 		{ 128u, 0x38u, 0x23u, (uint16)(uint32)(0u), (uint16)(CYDEV_UCFG_DSI0_BASE) },	/* TD 55 */
 378:Generated_Source\PSoC5/cyfitter_cfg.c **** 		{ 128u, 0xFEu, 0x23u, (uint16)(uint32)(0u), (uint16)(CYDEV_UCFG_DSI0_BASE + 0x00000080u) },	/* TD
 379:Generated_Source\PSoC5/cyfitter_cfg.c **** 	};
 380:Generated_Source\PSoC5/cyfitter_cfg.c **** 
 381:Generated_Source\PSoC5/cyfitter_cfg.c **** 	/* Source addresses can be relocated, but only when in 32bit addresses.
 382:Generated_Source\PSoC5/cyfitter_cfg.c **** 	   Because the standard TD table only has 16bit addresses, we generate a
 383:Generated_Source\PSoC5/cyfitter_cfg.c **** 	   separate table for the source addresses that does use 32bit addresses. This
 384:Generated_Source\PSoC5/cyfitter_cfg.c **** 	   table will be re-merged with the corresponding CFG_TD_LIST table during
 385:Generated_Source\PSoC5/cyfitter_cfg.c **** 	   initialization. */
 386:Generated_Source\PSoC5/cyfitter_cfg.c **** 	static const void * const CFG_TD_ADDR0[] = {
 387:Generated_Source\PSoC5/cyfitter_cfg.c **** 		(const void *)(CH1_ADDR_DATA0),	/* TD 1 */
 388:Generated_Source\PSoC5/cyfitter_cfg.c **** 		(const void *)(CH2_ADDR_DATA0),	/* TD 2 */
 389:Generated_Source\PSoC5/cyfitter_cfg.c **** 		(const void *)(CH5_ADDR_DATA0),	/* TD 3 */
 390:Generated_Source\PSoC5/cyfitter_cfg.c **** 		(const void *)(CH6_ADDR_DATA0),	/* TD 4 */
 391:Generated_Source\PSoC5/cyfitter_cfg.c **** 		(const void *)(DMA_TD_START_CMD),	/* TD 5 */
 392:Generated_Source\PSoC5/cyfitter_cfg.c **** 		(const void *)(DMA_TD_START_CMD),	/* TD 6 */
 393:Generated_Source\PSoC5/cyfitter_cfg.c **** 		(const void *)(DMA_TD_START_CMD),	/* TD 7 */
 394:Generated_Source\PSoC5/cyfitter_cfg.c **** 		(const void *)(DMA_TD_START_CMD),	/* TD 8 */
 395:Generated_Source\PSoC5/cyfitter_cfg.c **** 		(const void *)(&DMA_ZERO_VAL),	/* TD 9 */
 396:Generated_Source\PSoC5/cyfitter_cfg.c **** 		(const void *)(&DMA_ZERO_VAL),	/* TD 10 */
ARM GAS  C:\Users\RAPHAE~1\AppData\Local\Temp\cclOmceu.s 			page 11


 397:Generated_Source\PSoC5/cyfitter_cfg.c **** 		(const void *)(&DMA_ZERO_VAL),	/* TD 11 */
 398:Generated_Source\PSoC5/cyfitter_cfg.c **** 		(const void *)(&DMA_ZERO_VAL),	/* TD 12 */
 399:Generated_Source\PSoC5/cyfitter_cfg.c **** 		(const void *)(&DMA_ZERO_VAL),	/* TD 13 */
 400:Generated_Source\PSoC5/cyfitter_cfg.c **** 		(const void *)(&DMA_ZERO_VAL),	/* TD 14 */
 401:Generated_Source\PSoC5/cyfitter_cfg.c **** 		(const void *)(&DMA_ZERO_VAL),	/* TD 15 */
 402:Generated_Source\PSoC5/cyfitter_cfg.c **** 		(const void *)(&DMA_ZERO_VAL),	/* TD 16 */
 403:Generated_Source\PSoC5/cyfitter_cfg.c **** 		(const void *)(&DMA_ZERO_VAL),	/* TD 17 */
 404:Generated_Source\PSoC5/cyfitter_cfg.c **** 		(const void *)(&DMA_ZERO_VAL),	/* TD 18 */
 405:Generated_Source\PSoC5/cyfitter_cfg.c **** 		(const void *)(&DMA_ZERO_VAL),	/* TD 19 */
 406:Generated_Source\PSoC5/cyfitter_cfg.c **** 		(const void *)(&DMA_ZERO_VAL),	/* TD 20 */
 407:Generated_Source\PSoC5/cyfitter_cfg.c **** 		(const void *)(&DMA_ZERO_VAL),	/* TD 21 */
 408:Generated_Source\PSoC5/cyfitter_cfg.c **** 		(const void *)(&DMA_ZERO_VAL),	/* TD 22 */
 409:Generated_Source\PSoC5/cyfitter_cfg.c **** 		(const void *)(&DMA_ZERO_VAL),	/* TD 23 */
 410:Generated_Source\PSoC5/cyfitter_cfg.c **** 		(const void *)(BS_IOPORT_1_VAL),	/* TD 24 */
 411:Generated_Source\PSoC5/cyfitter_cfg.c **** 		(const void *)(BS_TMR0_VAL),	/* TD 25 */
 412:Generated_Source\PSoC5/cyfitter_cfg.c **** 		(const void *)(BS_DAC3_VAL),	/* TD 26 */
 413:Generated_Source\PSoC5/cyfitter_cfg.c **** 		(const void *)(BS_UWRK_B0_WRK_STATCTL_BITS_VAL),	/* TD 27 */
 414:Generated_Source\PSoC5/cyfitter_cfg.c **** 		(const void *)(BS_UWRK_B1_WRK_STATCTL_BITS_VAL),	/* TD 28 */
 415:Generated_Source\PSoC5/cyfitter_cfg.c **** 		(const void *)(BS_IDMUX_IRQ_VAL),	/* TD 29 */
 416:Generated_Source\PSoC5/cyfitter_cfg.c **** 		(const void *)(BS_UDB_0_2_1_CONFIG_VAL),	/* TD 30 */
 417:Generated_Source\PSoC5/cyfitter_cfg.c **** 		(const void *)(BS_UDB_0_2_0_CONFIG_VAL),	/* TD 31 */
 418:Generated_Source\PSoC5/cyfitter_cfg.c **** 		(const void *)(BS_UDB_0_1_1_CONFIG_VAL),	/* TD 32 */
 419:Generated_Source\PSoC5/cyfitter_cfg.c **** 		(const void *)(BS_UDB_0_1_0_CONFIG_VAL),	/* TD 33 */
 420:Generated_Source\PSoC5/cyfitter_cfg.c **** 		(const void *)(BS_UCFG_BCTL1_VAL),	/* TD 34 */
 421:Generated_Source\PSoC5/cyfitter_cfg.c **** 		(const void *)(BS_UCFG_BCTL0_VAL),	/* TD 35 */
 422:Generated_Source\PSoC5/cyfitter_cfg.c **** 		(const void *)(BS_DSI0_0_HV_ROUTING_VAL),	/* TD 36 */
 423:Generated_Source\PSoC5/cyfitter_cfg.c **** 		(const void *)(BS_DSISWITCH_0_1_VAL),	/* TD 37 */
 424:Generated_Source\PSoC5/cyfitter_cfg.c **** 		(const void *)(BS_DSI0_1_HV_ROUTING_VAL),	/* TD 38 */
 425:Generated_Source\PSoC5/cyfitter_cfg.c **** 		(const void *)(BS_DSISWITCH_0_2_VAL),	/* TD 39 */
 426:Generated_Source\PSoC5/cyfitter_cfg.c **** 		(const void *)(BS_DSI0_2_HV_ROUTING_VAL),	/* TD 40 */
 427:Generated_Source\PSoC5/cyfitter_cfg.c **** 		(const void *)(BS_UDB_1_0_HV_ROUTING_VAL),	/* TD 41 */
 428:Generated_Source\PSoC5/cyfitter_cfg.c **** 		(const void *)(BS_UDB_2_0_HV_ROUTING_VAL),	/* TD 42 */
 429:Generated_Source\PSoC5/cyfitter_cfg.c **** 		(const void *)(BS_UDBSWITCH_0_1_VAL),	/* TD 43 */
 430:Generated_Source\PSoC5/cyfitter_cfg.c **** 		(const void *)(BS_UDB_1_1_HV_ROUTING_VAL),	/* TD 44 */
 431:Generated_Source\PSoC5/cyfitter_cfg.c **** 		(const void *)(BS_UDB_2_1_HV_ROUTING_VAL),	/* TD 45 */
 432:Generated_Source\PSoC5/cyfitter_cfg.c **** 		(const void *)(BS_UDBSWITCH_0_2_VAL),	/* TD 46 */
 433:Generated_Source\PSoC5/cyfitter_cfg.c **** 		(const void *)(BS_UDB_1_2_HV_ROUTING_VAL),	/* TD 47 */
 434:Generated_Source\PSoC5/cyfitter_cfg.c **** 		(const void *)(BS_UDB_2_2_HV_ROUTING_VAL),	/* TD 48 */
 435:Generated_Source\PSoC5/cyfitter_cfg.c **** 		(const void *)(BS_DSI3_0_HV_ROUTING_VAL),	/* TD 49 */
 436:Generated_Source\PSoC5/cyfitter_cfg.c **** 		(const void *)(BS_DSISWITCH_1_1_VAL),	/* TD 50 */
 437:Generated_Source\PSoC5/cyfitter_cfg.c **** 		(const void *)(BS_DSI3_1_HV_ROUTING_VAL),	/* TD 51 */
 438:Generated_Source\PSoC5/cyfitter_cfg.c **** 		(const void *)(BS_DSI3_2_HV_ROUTING_VAL),	/* TD 52 */
 439:Generated_Source\PSoC5/cyfitter_cfg.c **** 		(const void *)(BS_DSI3_3_HV_ROUTING_VAL),	/* TD 53 */
 440:Generated_Source\PSoC5/cyfitter_cfg.c **** 		(const void *)(BS_DSI3_4_HV_ROUTING_VAL),	/* TD 54 */
 441:Generated_Source\PSoC5/cyfitter_cfg.c **** 		(const void *)(BS_DSISWITCH_1_5_VAL),	/* TD 55 */
 442:Generated_Source\PSoC5/cyfitter_cfg.c **** 		(const void *)(BS_DSI3_5_HV_ROUTING_VAL),	/* TD 56 */
 443:Generated_Source\PSoC5/cyfitter_cfg.c **** 	};
 444:Generated_Source\PSoC5/cyfitter_cfg.c **** 
 445:Generated_Source\PSoC5/cyfitter_cfg.c **** 
 446:Generated_Source\PSoC5/cyfitter_cfg.c **** 	uint32 i;
 447:Generated_Source\PSoC5/cyfitter_cfg.c **** 
 448:Generated_Source\PSoC5/cyfitter_cfg.c **** 	DMA_ZERO_VAL = 0u;
 175              		.loc 1 448 0
 176 0006 454B     		ldr	r3, .L15
 177 0008 0022     		movs	r2, #0
 178 000a 1A60     		str	r2, [r3]
 449:Generated_Source\PSoC5/cyfitter_cfg.c **** 	CY_SET_REG8((void CYXDATA *)CYREG_PHUB_CFGMEM0_CFG0, 0x10u);	/* set burstcnt */
ARM GAS  C:\Users\RAPHAE~1\AppData\Local\Temp\cclOmceu.s 			page 12


 179              		.loc 1 449 0
 180 000c 444B     		ldr	r3, .L15+4
 181 000e 1022     		movs	r2, #16
 182 0010 1A70     		strb	r2, [r3]
 450:Generated_Source\PSoC5/cyfitter_cfg.c **** 	CY_SET_REG8((void CYXDATA *)CYREG_PHUB_CH0_BASIC_CFG, 0x01u);	/* enable ch0 */
 183              		.loc 1 450 0
 184 0012 444B     		ldr	r3, .L15+8
 185 0014 0122     		movs	r2, #1
 186 0016 1A70     		strb	r2, [r3]
 451:Generated_Source\PSoC5/cyfitter_cfg.c **** 	CY_SET_REG8((void CYXDATA *)(CYREG_PHUB_CH0_BASIC_STATUS+1u), 0x00u);	/* set first TD to 0 */
 187              		.loc 1 451 0
 188 0018 434B     		ldr	r3, .L15+12
 189 001a 0022     		movs	r2, #0
 190 001c 1A70     		strb	r2, [r3]
 452:Generated_Source\PSoC5/cyfitter_cfg.c **** 	CY_SET_REG16((void CYXDATA *)CYREG_PHUB_TDMEM0_ORIG_TD0, 56u*8u);	/* transfer size */
 191              		.loc 1 452 0
 192 001e 434B     		ldr	r3, .L15+16
 193 0020 4FF4E072 		mov	r2, #448
 194 0024 1A80     		strh	r2, [r3]	@ movhi
 453:Generated_Source\PSoC5/cyfitter_cfg.c **** 	CY_SET_REG8((void CYXDATA *)(CYREG_PHUB_TDMEM0_ORIG_TD0+2u), 0x01u);	/* set next TD to 1 */
 195              		.loc 1 453 0
 196 0026 424B     		ldr	r3, .L15+20
 197 0028 0122     		movs	r2, #1
 198 002a 1A70     		strb	r2, [r3]
 454:Generated_Source\PSoC5/cyfitter_cfg.c **** 	CY_SET_REG8((void CYXDATA *)(CYREG_PHUB_TDMEM0_ORIG_TD0+3u), 0x03u);	/* set TD flags */
 199              		.loc 1 454 0
 200 002c 414B     		ldr	r3, .L15+24
 201 002e 0322     		movs	r2, #3
 202 0030 1A70     		strb	r2, [r3]
 455:Generated_Source\PSoC5/cyfitter_cfg.c **** 	CY_SET_REG16((void CYXDATA *)CYREG_PHUB_TDMEM0_ORIG_TD1, (uint16)((uint32)CFG_TD_LIST0 & 0x0000FFF
 203              		.loc 1 455 0
 204 0032 414B     		ldr	r3, .L15+28
 205 0034 414A     		ldr	r2, .L15+32
 206 0036 92B2     		uxth	r2, r2
 207 0038 1A80     		strh	r2, [r3]	@ movhi
 456:Generated_Source\PSoC5/cyfitter_cfg.c **** 	CY_SET_REG16((void CYXDATA *)(CYREG_PHUB_TDMEM0_ORIG_TD1+2u), CYDEV_PHUB_TDMEM1_BASE);	/* set td0'
 208              		.loc 1 456 0
 209 003a 414B     		ldr	r3, .L15+36
 210 003c 47F60802 		movw	r2, #30728
 211 0040 1A80     		strh	r2, [r3]	@ movhi
 457:Generated_Source\PSoC5/cyfitter_cfg.c **** 	CY_SET_REG16((void CYXDATA *)CYREG_PHUB_CFGMEM0_CFG1, (uint16)(CYDEV_FLASH_BASE >> 16));	/* set ch
 212              		.loc 1 457 0
 213 0042 404B     		ldr	r3, .L15+40
 214 0044 0022     		movs	r2, #0
 215 0046 1A80     		strh	r2, [r3]	@ movhi
 458:Generated_Source\PSoC5/cyfitter_cfg.c **** 	CY_SET_REG16((void CYXDATA *)(CYREG_PHUB_CFGMEM0_CFG1+2u), (uint16)(CYDEV_PHUB_TDMEM1_BASE >> 16))
 216              		.loc 1 458 0
 217 0048 3F4B     		ldr	r3, .L15+44
 218 004a 4FF48042 		mov	r2, #16384
 219 004e 1A80     		strh	r2, [r3]	@ movhi
 459:Generated_Source\PSoC5/cyfitter_cfg.c **** 	CY_SET_REG8((void CYXDATA *)(CYREG_PHUB_CH1_BASIC_STATUS+1u), 0x09u);	/* ch1 first TD: 9 */
 220              		.loc 1 459 0
 221 0050 3E4B     		ldr	r3, .L15+48
 222 0052 0922     		movs	r2, #9
 223 0054 1A70     		strb	r2, [r3]
 460:Generated_Source\PSoC5/cyfitter_cfg.c **** 	CY_SET_REG8((void CYXDATA *)(CYREG_PHUB_CH2_BASIC_STATUS+1u), 0x0Du);	/* ch2 first TD: 13 */
 224              		.loc 1 460 0
ARM GAS  C:\Users\RAPHAE~1\AppData\Local\Temp\cclOmceu.s 			page 13


 225 0056 3E4B     		ldr	r3, .L15+52
 226 0058 0D22     		movs	r2, #13
 227 005a 1A70     		strb	r2, [r3]
 461:Generated_Source\PSoC5/cyfitter_cfg.c **** 	CY_SET_REG8((void CYXDATA *)(CYREG_PHUB_CH5_BASIC_STATUS+1u), 0x18u);	/* ch5 first TD: 24 */
 228              		.loc 1 461 0
 229 005c 3D4B     		ldr	r3, .L15+56
 230 005e 1822     		movs	r2, #24
 231 0060 1A70     		strb	r2, [r3]
 462:Generated_Source\PSoC5/cyfitter_cfg.c **** 	CY_SET_REG8((void CYXDATA *)(CYREG_PHUB_CH6_BASIC_STATUS+1u), 0x1Du);	/* ch6 first TD: 29 */
 232              		.loc 1 462 0
 233 0062 3D4B     		ldr	r3, .L15+60
 234 0064 1D22     		movs	r2, #29
 235 0066 1A70     		strb	r2, [r3]
 463:Generated_Source\PSoC5/cyfitter_cfg.c **** 
 464:Generated_Source\PSoC5/cyfitter_cfg.c **** 	CY_CFG_MEMORY_BARRIER();
 236              		.loc 1 464 0
 237 0068 BFF35F8F 		dmb	sy
 465:Generated_Source\PSoC5/cyfitter_cfg.c **** 	CY_SET_REG8((void CYXDATA *)CYREG_PHUB_CH0_ACTION, 0x01u); /* cpu_req */
 238              		.loc 1 465 0
 239 006c 3B4B     		ldr	r3, .L15+64
 240 006e 0122     		movs	r2, #1
 241 0070 1A70     		strb	r2, [r3]
 466:Generated_Source\PSoC5/cyfitter_cfg.c **** 	CY_CFG_MEMORY_BARRIER();
 242              		.loc 1 466 0
 243 0072 BFF35F8F 		dmb	sy
 467:Generated_Source\PSoC5/cyfitter_cfg.c **** 
 468:Generated_Source\PSoC5/cyfitter_cfg.c **** 	/* Wait for TDs to be copied into TDMEM */
 469:Generated_Source\PSoC5/cyfitter_cfg.c **** 	while (CY_GET_REG16((void CYXDATA *)CYREG_PHUB_TDMEM0_ORIG_TD0) != 0u) { }
 244              		.loc 1 469 0
 245 0076 00BF     		nop
 246              	.L7:
 247              		.loc 1 469 0 is_stmt 0 discriminator 1
 248 0078 2C4B     		ldr	r3, .L15+16
 249 007a 1B88     		ldrh	r3, [r3]	@ movhi
 250 007c 9BB2     		uxth	r3, r3
 251 007e 002B     		cmp	r3, #0
 252 0080 FAD1     		bne	.L7
 470:Generated_Source\PSoC5/cyfitter_cfg.c **** 
 471:Generated_Source\PSoC5/cyfitter_cfg.c **** 	/* Recombine TD source table (CFG_TD_ADDR0) with full TD table (CFG_TD_LIST0) */
 472:Generated_Source\PSoC5/cyfitter_cfg.c **** 	for (i = 0u; i < 56u; i++)
 253              		.loc 1 472 0 is_stmt 1
 254 0082 0023     		movs	r3, #0
 255 0084 7B60     		str	r3, [r7, #4]
 256 0086 0DE0     		b	.L8
 257              	.L9:
 473:Generated_Source\PSoC5/cyfitter_cfg.c **** 	{
 474:Generated_Source\PSoC5/cyfitter_cfg.c **** 		CY_SET_REG16((void CYXDATA *)(CYREG_PHUB_TDMEM1_ORIG_TD1 + (sizeof(struct td_t)*i)), (uint16)(uin
 258              		.loc 1 474 0 discriminator 3
 259 0088 7B68     		ldr	r3, [r7, #4]
 260 008a DA00     		lsls	r2, r3, #3
 261 008c 344B     		ldr	r3, .L15+68
 262 008e 1344     		add	r3, r3, r2
 263 0090 1946     		mov	r1, r3
 264 0092 344A     		ldr	r2, .L15+72
 265 0094 7B68     		ldr	r3, [r7, #4]
 266 0096 52F82330 		ldr	r3, [r2, r3, lsl #2]
 267 009a 9BB2     		uxth	r3, r3
ARM GAS  C:\Users\RAPHAE~1\AppData\Local\Temp\cclOmceu.s 			page 14


 268 009c 0B80     		strh	r3, [r1]	@ movhi
 472:Generated_Source\PSoC5/cyfitter_cfg.c **** 	{
 269              		.loc 1 472 0 discriminator 3
 270 009e 7B68     		ldr	r3, [r7, #4]
 271 00a0 0133     		adds	r3, r3, #1
 272 00a2 7B60     		str	r3, [r7, #4]
 273              	.L8:
 472:Generated_Source\PSoC5/cyfitter_cfg.c **** 	{
 274              		.loc 1 472 0 is_stmt 0 discriminator 1
 275 00a4 7B68     		ldr	r3, [r7, #4]
 276 00a6 372B     		cmp	r3, #55
 277 00a8 EED9     		bls	.L9
 475:Generated_Source\PSoC5/cyfitter_cfg.c **** 	}
 476:Generated_Source\PSoC5/cyfitter_cfg.c **** 
 477:Generated_Source\PSoC5/cyfitter_cfg.c **** 	CY_CFG_MEMORY_BARRIER();
 278              		.loc 1 477 0 is_stmt 1
 279 00aa BFF35F8F 		dmb	sy
 478:Generated_Source\PSoC5/cyfitter_cfg.c **** 	CY_SET_REG8((void CYXDATA *)CYREG_PHUB_CH0_ACTION, 0x01u); /* cpu_req */
 280              		.loc 1 478 0
 281 00ae 2B4B     		ldr	r3, .L15+64
 282 00b0 0122     		movs	r2, #1
 283 00b2 1A70     		strb	r2, [r3]
 479:Generated_Source\PSoC5/cyfitter_cfg.c **** 	CY_CFG_MEMORY_BARRIER();
 284              		.loc 1 479 0
 285 00b4 BFF35F8F 		dmb	sy
 480:Generated_Source\PSoC5/cyfitter_cfg.c **** 
 481:Generated_Source\PSoC5/cyfitter_cfg.c **** 	/* Wait for all DMA transfers to complete */
 482:Generated_Source\PSoC5/cyfitter_cfg.c **** 	while(0u != (CY_GET_REG8((void CYXDATA *)CYREG_PHUB_CH0_BASIC_STATUS) & 0x01u)){}
 286              		.loc 1 482 0
 287 00b8 00BF     		nop
 288              	.L10:
 289              		.loc 1 482 0 is_stmt 0 discriminator 1
 290 00ba 2B4B     		ldr	r3, .L15+76
 291 00bc 1B78     		ldrb	r3, [r3]
 292 00be DBB2     		uxtb	r3, r3
 293 00c0 03F00103 		and	r3, r3, #1
 294 00c4 002B     		cmp	r3, #0
 295 00c6 F8D1     		bne	.L10
 483:Generated_Source\PSoC5/cyfitter_cfg.c **** 	while(0u != (CY_GET_REG8((void CYXDATA *)CYREG_PHUB_CH1_BASIC_STATUS) & 0x01u)){}
 296              		.loc 1 483 0 is_stmt 1
 297 00c8 00BF     		nop
 298              	.L11:
 299              		.loc 1 483 0 is_stmt 0 discriminator 1
 300 00ca 284B     		ldr	r3, .L15+80
 301 00cc 1B78     		ldrb	r3, [r3]
 302 00ce DBB2     		uxtb	r3, r3
 303 00d0 03F00103 		and	r3, r3, #1
 304 00d4 002B     		cmp	r3, #0
 305 00d6 F8D1     		bne	.L11
 484:Generated_Source\PSoC5/cyfitter_cfg.c **** 	while(0u != (CY_GET_REG8((void CYXDATA *)CYREG_PHUB_CH2_BASIC_STATUS) & 0x01u)){}
 306              		.loc 1 484 0 is_stmt 1
 307 00d8 00BF     		nop
 308              	.L12:
 309              		.loc 1 484 0 is_stmt 0 discriminator 1
 310 00da 254B     		ldr	r3, .L15+84
 311 00dc 1B78     		ldrb	r3, [r3]
 312 00de DBB2     		uxtb	r3, r3
ARM GAS  C:\Users\RAPHAE~1\AppData\Local\Temp\cclOmceu.s 			page 15


 313 00e0 03F00103 		and	r3, r3, #1
 314 00e4 002B     		cmp	r3, #0
 315 00e6 F8D1     		bne	.L12
 485:Generated_Source\PSoC5/cyfitter_cfg.c **** 	while(0u != (CY_GET_REG8((void CYXDATA *)CYREG_PHUB_CH5_BASIC_STATUS) & 0x01u)){}
 316              		.loc 1 485 0 is_stmt 1
 317 00e8 00BF     		nop
 318              	.L13:
 319              		.loc 1 485 0 is_stmt 0 discriminator 1
 320 00ea 224B     		ldr	r3, .L15+88
 321 00ec 1B78     		ldrb	r3, [r3]
 322 00ee DBB2     		uxtb	r3, r3
 323 00f0 03F00103 		and	r3, r3, #1
 324 00f4 002B     		cmp	r3, #0
 325 00f6 F8D1     		bne	.L13
 486:Generated_Source\PSoC5/cyfitter_cfg.c **** 	while(0u != (CY_GET_REG8((void CYXDATA *)CYREG_PHUB_CH6_BASIC_STATUS) & 0x01u)){}
 326              		.loc 1 486 0 is_stmt 1
 327 00f8 00BF     		nop
 328              	.L14:
 329              		.loc 1 486 0 is_stmt 0 discriminator 1
 330 00fa 1F4B     		ldr	r3, .L15+92
 331 00fc 1B78     		ldrb	r3, [r3]
 332 00fe DBB2     		uxtb	r3, r3
 333 0100 03F00103 		and	r3, r3, #1
 334 0104 002B     		cmp	r3, #0
 335 0106 F8D1     		bne	.L14
 487:Generated_Source\PSoC5/cyfitter_cfg.c **** 
 488:Generated_Source\PSoC5/cyfitter_cfg.c **** 
 489:Generated_Source\PSoC5/cyfitter_cfg.c **** 	CYCONFIGCPY((void CYFAR *)(CYREG_IDMUX_DRQ_CTL0), (const void CYFAR *)(BS_IDMUX_VAL), 6u);
 336              		.loc 1 489 0 is_stmt 1
 337 0108 1C48     		ldr	r0, .L15+96
 338 010a 4FF09041 		mov	r1, #1207959552
 339 010e 0622     		movs	r2, #6
 340 0110 FFF7FEFF 		bl	CYCONFIGCPY
 490:Generated_Source\PSoC5/cyfitter_cfg.c **** 
 491:Generated_Source\PSoC5/cyfitter_cfg.c **** }
 341              		.loc 1 491 0
 342 0114 0837     		adds	r7, r7, #8
 343              		.cfi_def_cfa_offset 8
 344 0116 BD46     		mov	sp, r7
 345              		.cfi_def_cfa_register 13
 346              		@ sp needed
 347 0118 80BD     		pop	{r7, pc}
 348              	.L16:
 349 011a 00BF     		.align	2
 350              	.L15:
 351 011c 00000000 		.word	DMA_ZERO_VAL.4848
 352 0120 00760040 		.word	1073772032
 353 0124 10700040 		.word	1073770512
 354 0128 19700040 		.word	1073770521
 355 012c 00780040 		.word	1073772544
 356 0130 02780040 		.word	1073772546
 357 0134 03780040 		.word	1073772547
 358 0138 04780040 		.word	1073772548
 359 013c 00000000 		.word	CFG_TD_LIST0.4849
 360 0140 06780040 		.word	1073772550
 361 0144 04760040 		.word	1073772036
 362 0148 06760040 		.word	1073772038
ARM GAS  C:\Users\RAPHAE~1\AppData\Local\Temp\cclOmceu.s 			page 16


 363 014c 29700040 		.word	1073770537
 364 0150 39700040 		.word	1073770553
 365 0154 69700040 		.word	1073770601
 366 0158 79700040 		.word	1073770617
 367 015c 14700040 		.word	1073770516
 368 0160 0C780040 		.word	1073772556
 369 0164 00000000 		.word	CFG_TD_ADDR0.4850
 370 0168 18700040 		.word	1073770520
 371 016c 28700040 		.word	1073770536
 372 0170 38700040 		.word	1073770552
 373 0174 68700040 		.word	1073770600
 374 0178 78700040 		.word	1073770616
 375 017c 10510140 		.word	1073828112
 376              		.cfi_endproc
 377              	.LFE4:
 378              		.size	cfg_dma_init, .-cfg_dma_init
 379              		.section	.text.ClockSetup,"ax",%progbits
 380              		.align	2
 381              		.thumb
 382              		.thumb_func
 383              		.type	ClockSetup, %function
 384              	ClockSetup:
 385              	.LFB5:
 492:Generated_Source\PSoC5/cyfitter_cfg.c **** /*******************************************************************************
 493:Generated_Source\PSoC5/cyfitter_cfg.c **** * Function Name: ClockSetup
 494:Generated_Source\PSoC5/cyfitter_cfg.c **** ********************************************************************************
 495:Generated_Source\PSoC5/cyfitter_cfg.c **** *
 496:Generated_Source\PSoC5/cyfitter_cfg.c **** * Summary:
 497:Generated_Source\PSoC5/cyfitter_cfg.c **** *  Performs the initialization of all of the clocks in the device based on the
 498:Generated_Source\PSoC5/cyfitter_cfg.c **** *  settings in the Clock tab of the DWR.  This includes enabling the requested
 499:Generated_Source\PSoC5/cyfitter_cfg.c **** *  clocks and setting the necessary dividers to produce the desired frequency. 
 500:Generated_Source\PSoC5/cyfitter_cfg.c **** *
 501:Generated_Source\PSoC5/cyfitter_cfg.c **** * Parameters:
 502:Generated_Source\PSoC5/cyfitter_cfg.c **** *  void
 503:Generated_Source\PSoC5/cyfitter_cfg.c **** *
 504:Generated_Source\PSoC5/cyfitter_cfg.c **** * Return:
 505:Generated_Source\PSoC5/cyfitter_cfg.c **** *  void
 506:Generated_Source\PSoC5/cyfitter_cfg.c **** *
 507:Generated_Source\PSoC5/cyfitter_cfg.c **** *******************************************************************************/
 508:Generated_Source\PSoC5/cyfitter_cfg.c **** static void ClockSetup(void);
 509:Generated_Source\PSoC5/cyfitter_cfg.c **** static void ClockSetup(void)
 510:Generated_Source\PSoC5/cyfitter_cfg.c **** {
 386              		.loc 1 510 0
 387              		.cfi_startproc
 388              		@ args = 0, pretend = 0, frame = 8
 389              		@ frame_needed = 1, uses_anonymous_args = 0
 390 0000 80B5     		push	{r7, lr}
 391              		.cfi_def_cfa_offset 8
 392              		.cfi_offset 7, -8
 393              		.cfi_offset 14, -4
 394 0002 82B0     		sub	sp, sp, #8
 395              		.cfi_def_cfa_offset 16
 396 0004 00AF     		add	r7, sp, #0
 397              		.cfi_def_cfa_register 7
 511:Generated_Source\PSoC5/cyfitter_cfg.c **** 	uint32 timeout;
 512:Generated_Source\PSoC5/cyfitter_cfg.c **** 	uint8 pllLock;
 513:Generated_Source\PSoC5/cyfitter_cfg.c **** 
ARM GAS  C:\Users\RAPHAE~1\AppData\Local\Temp\cclOmceu.s 			page 17


 514:Generated_Source\PSoC5/cyfitter_cfg.c **** 
 515:Generated_Source\PSoC5/cyfitter_cfg.c **** 	/* Configure Digital Clocks based on settings from Clock DWR */
 516:Generated_Source\PSoC5/cyfitter_cfg.c **** 	CY_SET_XTND_REG16((void CYFAR *)(CYREG_CLKDIST_DCFG0_CFG0), 0x0041u);
 398              		.loc 1 516 0
 399 0006 374B     		ldr	r3, .L22
 400 0008 4122     		movs	r2, #65
 401 000a 1A80     		strh	r2, [r3]	@ movhi
 517:Generated_Source\PSoC5/cyfitter_cfg.c **** 	CY_SET_XTND_REG8((void CYFAR *)(CYREG_CLKDIST_DCFG0_CFG0 + 0x2u), 0x18u);
 402              		.loc 1 517 0
 403 000c 364B     		ldr	r3, .L22+4
 404 000e 1822     		movs	r2, #24
 405 0010 1A70     		strb	r2, [r3]
 518:Generated_Source\PSoC5/cyfitter_cfg.c **** 	CY_SET_XTND_REG16((void CYFAR *)(CYREG_CLKDIST_DCFG1_CFG0), 0x0005u);
 406              		.loc 1 518 0
 407 0012 364B     		ldr	r3, .L22+8
 408 0014 0522     		movs	r2, #5
 409 0016 1A80     		strh	r2, [r3]	@ movhi
 519:Generated_Source\PSoC5/cyfitter_cfg.c **** 	CY_SET_XTND_REG8((void CYFAR *)(CYREG_CLKDIST_DCFG1_CFG0 + 0x2u), 0x19u);
 410              		.loc 1 519 0
 411 0018 354B     		ldr	r3, .L22+12
 412 001a 1922     		movs	r2, #25
 413 001c 1A70     		strb	r2, [r3]
 520:Generated_Source\PSoC5/cyfitter_cfg.c **** 	CY_SET_XTND_REG16((void CYFAR *)(CYREG_CLKDIST_DCFG2_CFG0), 0x0671u);
 414              		.loc 1 520 0
 415 001e 354B     		ldr	r3, .L22+16
 416 0020 40F27162 		movw	r2, #1649
 417 0024 1A80     		strh	r2, [r3]	@ movhi
 521:Generated_Source\PSoC5/cyfitter_cfg.c **** 	CY_SET_XTND_REG8((void CYFAR *)(CYREG_CLKDIST_DCFG2_CFG0 + 0x2u), 0x18u);
 418              		.loc 1 521 0
 419 0026 344B     		ldr	r3, .L22+20
 420 0028 1822     		movs	r2, #24
 421 002a 1A70     		strb	r2, [r3]
 522:Generated_Source\PSoC5/cyfitter_cfg.c **** 
 523:Generated_Source\PSoC5/cyfitter_cfg.c **** 	/* Configure ILO based on settings from Clock DWR */
 524:Generated_Source\PSoC5/cyfitter_cfg.c **** 	CY_SET_XTND_REG8((void CYFAR *)(CYREG_SLOWCLK_ILO_CR0), 0x02u);
 422              		.loc 1 524 0
 423 002c 334B     		ldr	r3, .L22+24
 424 002e 0222     		movs	r2, #2
 425 0030 1A70     		strb	r2, [r3]
 525:Generated_Source\PSoC5/cyfitter_cfg.c **** 	CY_SET_XTND_REG8((void CYFAR *)(CYREG_CLKDIST_CR), 0x08u);
 426              		.loc 1 525 0
 427 0032 4FF04023 		mov	r3, #1073758208
 428 0036 0822     		movs	r2, #8
 429 0038 1A70     		strb	r2, [r3]
 526:Generated_Source\PSoC5/cyfitter_cfg.c **** 
 527:Generated_Source\PSoC5/cyfitter_cfg.c **** 	/* Configure IMO based on settings from Clock DWR */
 528:Generated_Source\PSoC5/cyfitter_cfg.c **** 	CY_SET_XTND_REG8((void CYFAR *)(CYREG_FASTCLK_IMO_CR), 0x03u);
 430              		.loc 1 528 0
 431 003a 314B     		ldr	r3, .L22+28
 432 003c 0322     		movs	r2, #3
 433 003e 1A70     		strb	r2, [r3]
 529:Generated_Source\PSoC5/cyfitter_cfg.c **** 	CY_SET_XTND_REG8((void CYFAR *)(CYREG_IMO_TR1), (CY_GET_XTND_REG8((void CYFAR *)CYREG_FLSHID_CUST_
 434              		.loc 1 529 0
 435 0040 304B     		ldr	r3, .L22+32
 436 0042 314A     		ldr	r2, .L22+36
 437 0044 1278     		ldrb	r2, [r2]
 438 0046 D2B2     		uxtb	r2, r2
ARM GAS  C:\Users\RAPHAE~1\AppData\Local\Temp\cclOmceu.s 			page 18


 439 0048 1A70     		strb	r2, [r3]
 530:Generated_Source\PSoC5/cyfitter_cfg.c **** 
 531:Generated_Source\PSoC5/cyfitter_cfg.c **** 	/* Configure PLL based on settings from Clock DWR */
 532:Generated_Source\PSoC5/cyfitter_cfg.c **** 	CY_SET_XTND_REG16((void CYFAR *)(CYREG_FASTCLK_PLL_P), 0x0242u);
 440              		.loc 1 532 0
 441 004a 304B     		ldr	r3, .L22+40
 442 004c 40F24222 		movw	r2, #578
 443 0050 1A80     		strh	r2, [r3]	@ movhi
 533:Generated_Source\PSoC5/cyfitter_cfg.c **** 	CY_SET_XTND_REG16((void CYFAR *)(CYREG_FASTCLK_PLL_CFG0), 0x1251u);
 444              		.loc 1 533 0
 445 0052 2F4B     		ldr	r3, .L22+44
 446 0054 41F25122 		movw	r2, #4689
 447 0058 1A80     		strh	r2, [r3]	@ movhi
 534:Generated_Source\PSoC5/cyfitter_cfg.c **** 	/* Wait up to 250us for the PLL to lock */
 535:Generated_Source\PSoC5/cyfitter_cfg.c **** 	pllLock = 0u;
 448              		.loc 1 535 0
 449 005a 0023     		movs	r3, #0
 450 005c FB70     		strb	r3, [r7, #3]
 536:Generated_Source\PSoC5/cyfitter_cfg.c **** 	for (timeout = 250u / 10u; (timeout > 0u) && (pllLock != 0x03u); timeout--)
 451              		.loc 1 536 0
 452 005e 1923     		movs	r3, #25
 453 0060 7B60     		str	r3, [r7, #4]
 454 0062 14E0     		b	.L18
 455              	.L20:
 537:Generated_Source\PSoC5/cyfitter_cfg.c **** 	{ 
 538:Generated_Source\PSoC5/cyfitter_cfg.c **** 		pllLock = 0x03u & ((uint8)((uint8)pllLock << 1) | ((CY_GET_XTND_REG8((void CYFAR *)CYREG_FASTCLK_
 456              		.loc 1 538 0 discriminator 4
 457 0064 FB78     		ldrb	r3, [r7, #3]
 458 0066 5B00     		lsls	r3, r3, #1
 459 0068 DAB2     		uxtb	r2, r3
 460 006a 2A4B     		ldr	r3, .L22+48
 461 006c 1B78     		ldrb	r3, [r3]
 462 006e DBB2     		uxtb	r3, r3
 463 0070 03F00103 		and	r3, r3, #1
 464 0074 DBB2     		uxtb	r3, r3
 465 0076 1343     		orrs	r3, r3, r2
 466 0078 DBB2     		uxtb	r3, r3
 467 007a 03F00303 		and	r3, r3, #3
 468 007e FB70     		strb	r3, [r7, #3]
 539:Generated_Source\PSoC5/cyfitter_cfg.c **** 		CyDelayCycles(10u * 48u); /* Delay 10us based on 48MHz clock */
 469              		.loc 1 539 0 discriminator 4
 470 0080 4FF4F070 		mov	r0, #480
 471 0084 FFF7FEFF 		bl	CyDelayCycles
 536:Generated_Source\PSoC5/cyfitter_cfg.c **** 	for (timeout = 250u / 10u; (timeout > 0u) && (pllLock != 0x03u); timeout--)
 472              		.loc 1 536 0 discriminator 4
 473 0088 7B68     		ldr	r3, [r7, #4]
 474 008a 013B     		subs	r3, r3, #1
 475 008c 7B60     		str	r3, [r7, #4]
 476              	.L18:
 536:Generated_Source\PSoC5/cyfitter_cfg.c **** 	for (timeout = 250u / 10u; (timeout > 0u) && (pllLock != 0x03u); timeout--)
 477              		.loc 1 536 0 is_stmt 0 discriminator 1
 478 008e 7B68     		ldr	r3, [r7, #4]
 479 0090 002B     		cmp	r3, #0
 480 0092 02D0     		beq	.L19
 536:Generated_Source\PSoC5/cyfitter_cfg.c **** 	for (timeout = 250u / 10u; (timeout > 0u) && (pllLock != 0x03u); timeout--)
 481              		.loc 1 536 0 discriminator 3
 482 0094 FB78     		ldrb	r3, [r7, #3]	@ zero_extendqisi2
ARM GAS  C:\Users\RAPHAE~1\AppData\Local\Temp\cclOmceu.s 			page 19


 483 0096 032B     		cmp	r3, #3
 484 0098 E4D1     		bne	.L20
 485              	.L19:
 540:Generated_Source\PSoC5/cyfitter_cfg.c **** 	}
 541:Generated_Source\PSoC5/cyfitter_cfg.c **** 	/* If we ran out of time the PLL didn't lock so go to the error function */
 542:Generated_Source\PSoC5/cyfitter_cfg.c **** 	if (timeout == 0u)
 486              		.loc 1 542 0 is_stmt 1
 487 009a 7B68     		ldr	r3, [r7, #4]
 488 009c 002B     		cmp	r3, #0
 489 009e 02D1     		bne	.L21
 543:Generated_Source\PSoC5/cyfitter_cfg.c **** 	{
 544:Generated_Source\PSoC5/cyfitter_cfg.c **** 		CyClockStartupError(CYCLOCKSTART_PLL_ERROR);
 490              		.loc 1 544 0
 491 00a0 0320     		movs	r0, #3
 492 00a2 FFF7FEFF 		bl	CyClockStartupError
 493              	.L21:
 545:Generated_Source\PSoC5/cyfitter_cfg.c **** 	}
 546:Generated_Source\PSoC5/cyfitter_cfg.c **** 
 547:Generated_Source\PSoC5/cyfitter_cfg.c **** 	/* Configure Bus/Master Clock based on settings from Clock DWR */
 548:Generated_Source\PSoC5/cyfitter_cfg.c **** 	CY_SET_XTND_REG16((void CYFAR *)(CYREG_CLKDIST_MSTR0), 0x0100u);
 494              		.loc 1 548 0
 495 00a6 1C4B     		ldr	r3, .L22+52
 496 00a8 4FF48072 		mov	r2, #256
 497 00ac 1A80     		strh	r2, [r3]	@ movhi
 549:Generated_Source\PSoC5/cyfitter_cfg.c **** 	CY_SET_XTND_REG8((void CYFAR *)(CYREG_CLKDIST_MSTR0), 0x07u);
 498              		.loc 1 549 0
 499 00ae 1A4B     		ldr	r3, .L22+52
 500 00b0 0722     		movs	r2, #7
 501 00b2 1A70     		strb	r2, [r3]
 550:Generated_Source\PSoC5/cyfitter_cfg.c **** 	CY_SET_XTND_REG8((void CYFAR *)(CYREG_CLKDIST_BCFG0), 0x00u);
 502              		.loc 1 550 0
 503 00b4 194B     		ldr	r3, .L22+56
 504 00b6 0022     		movs	r2, #0
 505 00b8 1A70     		strb	r2, [r3]
 551:Generated_Source\PSoC5/cyfitter_cfg.c **** 	CY_SET_XTND_REG8((void CYFAR *)(CYREG_CLKDIST_BCFG2), 0x48u);
 506              		.loc 1 551 0
 507 00ba 194B     		ldr	r3, .L22+60
 508 00bc 4822     		movs	r2, #72
 509 00be 1A70     		strb	r2, [r3]
 552:Generated_Source\PSoC5/cyfitter_cfg.c **** 	CY_SET_XTND_REG8((void CYFAR *)(CYREG_CLKDIST_MSTR0), 0x00u);
 510              		.loc 1 552 0
 511 00c0 154B     		ldr	r3, .L22+52
 512 00c2 0022     		movs	r2, #0
 513 00c4 1A70     		strb	r2, [r3]
 553:Generated_Source\PSoC5/cyfitter_cfg.c **** 	CY_SET_XTND_REG8((void CYFAR *)(CYREG_CLKDIST_LD), 0x02u);
 514              		.loc 1 553 0
 515 00c6 174B     		ldr	r3, .L22+64
 516 00c8 0222     		movs	r2, #2
 517 00ca 1A70     		strb	r2, [r3]
 554:Generated_Source\PSoC5/cyfitter_cfg.c **** 
 555:Generated_Source\PSoC5/cyfitter_cfg.c **** 	CY_SET_XTND_REG8((void CYFAR *)(CYREG_PM_ACT_CFG2), ((CY_GET_XTND_REG8((void CYFAR *)CYREG_PM_ACT_
 518              		.loc 1 555 0
 519 00cc 164A     		ldr	r2, .L22+68
 520 00ce 164B     		ldr	r3, .L22+68
 521 00d0 1B78     		ldrb	r3, [r3]
 522 00d2 DBB2     		uxtb	r3, r3
 523 00d4 43F00703 		orr	r3, r3, #7
ARM GAS  C:\Users\RAPHAE~1\AppData\Local\Temp\cclOmceu.s 			page 20


 524 00d8 DBB2     		uxtb	r3, r3
 525 00da 1370     		strb	r3, [r2]
 556:Generated_Source\PSoC5/cyfitter_cfg.c **** }
 526              		.loc 1 556 0
 527 00dc 0837     		adds	r7, r7, #8
 528              		.cfi_def_cfa_offset 8
 529 00de BD46     		mov	sp, r7
 530              		.cfi_def_cfa_register 13
 531              		@ sp needed
 532 00e0 80BD     		pop	{r7, pc}
 533              	.L23:
 534 00e2 00BF     		.align	2
 535              	.L22:
 536 00e4 80400040 		.word	1073758336
 537 00e8 82400040 		.word	1073758338
 538 00ec 84400040 		.word	1073758340
 539 00f0 86400040 		.word	1073758342
 540 00f4 88400040 		.word	1073758344
 541 00f8 8A400040 		.word	1073758346
 542 00fc 00430040 		.word	1073758976
 543 0100 00420040 		.word	1073758720
 544 0104 A1460040 		.word	1073759905
 545 0108 08010049 		.word	1224737032
 546 010c 22420040 		.word	1073758754
 547 0110 20420040 		.word	1073758752
 548 0114 25420040 		.word	1073758757
 549 0118 04400040 		.word	1073758212
 550 011c 06400040 		.word	1073758214
 551 0120 08400040 		.word	1073758216
 552 0124 01400040 		.word	1073758209
 553 0128 A2430040 		.word	1073759138
 554              		.cfi_endproc
 555              	.LFE5:
 556              		.size	ClockSetup, .-ClockSetup
 557              		.section	.text.AnalogSetDefault,"ax",%progbits
 558              		.align	2
 559              		.thumb
 560              		.thumb_func
 561              		.type	AnalogSetDefault, %function
 562              	AnalogSetDefault:
 563              	.LFB6:
 557:Generated_Source\PSoC5/cyfitter_cfg.c **** 
 558:Generated_Source\PSoC5/cyfitter_cfg.c **** 
 559:Generated_Source\PSoC5/cyfitter_cfg.c **** /* Analog API Functions */
 560:Generated_Source\PSoC5/cyfitter_cfg.c **** 
 561:Generated_Source\PSoC5/cyfitter_cfg.c **** 
 562:Generated_Source\PSoC5/cyfitter_cfg.c **** /*******************************************************************************
 563:Generated_Source\PSoC5/cyfitter_cfg.c **** * Function Name: AnalogSetDefault
 564:Generated_Source\PSoC5/cyfitter_cfg.c **** ********************************************************************************
 565:Generated_Source\PSoC5/cyfitter_cfg.c **** *
 566:Generated_Source\PSoC5/cyfitter_cfg.c **** * Summary:
 567:Generated_Source\PSoC5/cyfitter_cfg.c **** *  Sets up the analog portions of the chip to default values based on chip
 568:Generated_Source\PSoC5/cyfitter_cfg.c **** *  configuration options from the project.
 569:Generated_Source\PSoC5/cyfitter_cfg.c **** *
 570:Generated_Source\PSoC5/cyfitter_cfg.c **** * Parameters:
 571:Generated_Source\PSoC5/cyfitter_cfg.c **** *  void
 572:Generated_Source\PSoC5/cyfitter_cfg.c **** *
ARM GAS  C:\Users\RAPHAE~1\AppData\Local\Temp\cclOmceu.s 			page 21


 573:Generated_Source\PSoC5/cyfitter_cfg.c **** * Return:
 574:Generated_Source\PSoC5/cyfitter_cfg.c **** *  void
 575:Generated_Source\PSoC5/cyfitter_cfg.c **** *
 576:Generated_Source\PSoC5/cyfitter_cfg.c **** *******************************************************************************/
 577:Generated_Source\PSoC5/cyfitter_cfg.c **** static void AnalogSetDefault(void);
 578:Generated_Source\PSoC5/cyfitter_cfg.c **** static void AnalogSetDefault(void)
 579:Generated_Source\PSoC5/cyfitter_cfg.c **** {
 564              		.loc 1 579 0
 565              		.cfi_startproc
 566              		@ args = 0, pretend = 0, frame = 8
 567              		@ frame_needed = 1, uses_anonymous_args = 0
 568              		@ link register save eliminated.
 569 0000 80B4     		push	{r7}
 570              		.cfi_def_cfa_offset 4
 571              		.cfi_offset 7, -4
 572 0002 83B0     		sub	sp, sp, #12
 573              		.cfi_def_cfa_offset 16
 574 0004 00AF     		add	r7, sp, #0
 575              		.cfi_def_cfa_register 7
 580:Generated_Source\PSoC5/cyfitter_cfg.c **** 	uint8 bg_xover_inl_trim = CY_GET_XTND_REG8((void CYFAR *)(CYREG_FLSHID_MFG_CFG_BG_XOVER_INL_TRIM +
 576              		.loc 1 580 0
 577 0006 144B     		ldr	r3, .L25
 578 0008 1B78     		ldrb	r3, [r3]
 579 000a FB71     		strb	r3, [r7, #7]
 581:Generated_Source\PSoC5/cyfitter_cfg.c **** 	CY_SET_XTND_REG8((void CYFAR *)(CYREG_BG_DFT0), (bg_xover_inl_trim & 0x07u));
 580              		.loc 1 581 0
 581 000c 134A     		ldr	r2, .L25+4
 582 000e FB79     		ldrb	r3, [r7, #7]
 583 0010 03F00703 		and	r3, r3, #7
 584 0014 DBB2     		uxtb	r3, r3
 585 0016 1370     		strb	r3, [r2]
 582:Generated_Source\PSoC5/cyfitter_cfg.c **** 	CY_SET_XTND_REG8((void CYFAR *)(CYREG_BG_DFT1), ((bg_xover_inl_trim >> 4) & 0x0Fu));
 586              		.loc 1 582 0
 587 0018 114A     		ldr	r2, .L25+8
 588 001a FB79     		ldrb	r3, [r7, #7]	@ zero_extendqisi2
 589 001c 1B09     		lsrs	r3, r3, #4
 590 001e DBB2     		uxtb	r3, r3
 591 0020 1370     		strb	r3, [r2]
 583:Generated_Source\PSoC5/cyfitter_cfg.c **** 	CY_SET_XTND_REG8((void CYFAR *)CYREG_PRT0_AG, 0x04u);
 592              		.loc 1 583 0
 593 0022 104B     		ldr	r3, .L25+12
 594 0024 0422     		movs	r2, #4
 595 0026 1A70     		strb	r2, [r3]
 584:Generated_Source\PSoC5/cyfitter_cfg.c **** 	CY_SET_XTND_REG8((void CYFAR *)CYREG_PRT3_AG, 0x80u);
 596              		.loc 1 584 0
 597 0028 0F4B     		ldr	r3, .L25+16
 598 002a 8022     		movs	r2, #128
 599 002c 1A70     		strb	r2, [r3]
 585:Generated_Source\PSoC5/cyfitter_cfg.c **** 	CY_SET_XTND_REG8((void CYFAR *)CYREG_DAC3_SW0, 0x10u);
 600              		.loc 1 585 0
 601 002e 0F4B     		ldr	r3, .L25+20
 602 0030 1022     		movs	r2, #16
 603 0032 1A70     		strb	r2, [r3]
 586:Generated_Source\PSoC5/cyfitter_cfg.c **** 	CY_SET_XTND_REG8((void CYFAR *)CYREG_DSM0_SW0, 0xC0u);
 604              		.loc 1 586 0
 605 0034 0E4B     		ldr	r3, .L25+24
 606 0036 C022     		movs	r2, #192
ARM GAS  C:\Users\RAPHAE~1\AppData\Local\Temp\cclOmceu.s 			page 22


 607 0038 1A70     		strb	r2, [r3]
 587:Generated_Source\PSoC5/cyfitter_cfg.c **** 	CY_SET_XTND_REG16((void CYFAR *)CYREG_OPAMP3_MX, 0x0101u);
 608              		.loc 1 587 0
 609 003a 0E4B     		ldr	r3, .L25+28
 610 003c 40F20112 		movw	r2, #257
 611 0040 1A80     		strh	r2, [r3]	@ movhi
 588:Generated_Source\PSoC5/cyfitter_cfg.c **** 	CY_SET_XTND_REG8((void CYFAR *)CYREG_BUS_SW0, 0x80u);
 612              		.loc 1 588 0
 613 0042 0D4B     		ldr	r3, .L25+32
 614 0044 8022     		movs	r2, #128
 615 0046 1A70     		strb	r2, [r3]
 589:Generated_Source\PSoC5/cyfitter_cfg.c **** 	CY_SET_XTND_REG8((void CYFAR *)CYREG_PUMP_CR0, 0x44u);
 616              		.loc 1 589 0
 617 0048 0C4B     		ldr	r3, .L25+36
 618 004a 4422     		movs	r2, #68
 619 004c 1A70     		strb	r2, [r3]
 590:Generated_Source\PSoC5/cyfitter_cfg.c **** }
 620              		.loc 1 590 0
 621 004e 0C37     		adds	r7, r7, #12
 622              		.cfi_def_cfa_offset 4
 623 0050 BD46     		mov	sp, r7
 624              		.cfi_def_cfa_register 13
 625              		@ sp needed
 626 0052 5DF8047B 		ldr	r7, [sp], #4
 627              		.cfi_restore 7
 628              		.cfi_def_cfa_offset 0
 629 0056 7047     		bx	lr
 630              	.L26:
 631              		.align	2
 632              	.L25:
 633 0058 CF010049 		.word	1224737231
 634 005c 6E580040 		.word	1073764462
 635 0060 6F580040 		.word	1073764463
 636 0064 0D510040 		.word	1073762573
 637 0068 3D510040 		.word	1073762621
 638 006c 985A0040 		.word	1073765016
 639 0070 005B0040 		.word	1073765120
 640 0074 465B0040 		.word	1073765190
 641 0078 585B0040 		.word	1073765208
 642 007c 76580040 		.word	1073764470
 643              		.cfi_endproc
 644              	.LFE6:
 645              		.size	AnalogSetDefault, .-AnalogSetDefault
 646              		.section	.text.SetAnalogRoutingPumps,"ax",%progbits
 647              		.align	2
 648              		.global	SetAnalogRoutingPumps
 649              		.thumb
 650              		.thumb_func
 651              		.type	SetAnalogRoutingPumps, %function
 652              	SetAnalogRoutingPumps:
 653              	.LFB7:
 591:Generated_Source\PSoC5/cyfitter_cfg.c **** 
 592:Generated_Source\PSoC5/cyfitter_cfg.c **** 
 593:Generated_Source\PSoC5/cyfitter_cfg.c **** /*******************************************************************************
 594:Generated_Source\PSoC5/cyfitter_cfg.c **** * Function Name: SetAnalogRoutingPumps
 595:Generated_Source\PSoC5/cyfitter_cfg.c **** ********************************************************************************
 596:Generated_Source\PSoC5/cyfitter_cfg.c **** *
ARM GAS  C:\Users\RAPHAE~1\AppData\Local\Temp\cclOmceu.s 			page 23


 597:Generated_Source\PSoC5/cyfitter_cfg.c **** * Summary:
 598:Generated_Source\PSoC5/cyfitter_cfg.c **** * Enables or disables the analog pumps feeding analog routing switches.
 599:Generated_Source\PSoC5/cyfitter_cfg.c **** * Intended to be called at startup, based on the Vdda system configuration;
 600:Generated_Source\PSoC5/cyfitter_cfg.c **** * may be called during operation when the user informs us that the Vdda voltage
 601:Generated_Source\PSoC5/cyfitter_cfg.c **** * crossed the pump threshold.
 602:Generated_Source\PSoC5/cyfitter_cfg.c **** *
 603:Generated_Source\PSoC5/cyfitter_cfg.c **** * Parameters:
 604:Generated_Source\PSoC5/cyfitter_cfg.c **** *  enabled - 1 to enable the pumps, 0 to disable the pumps
 605:Generated_Source\PSoC5/cyfitter_cfg.c **** *
 606:Generated_Source\PSoC5/cyfitter_cfg.c **** * Return:
 607:Generated_Source\PSoC5/cyfitter_cfg.c **** *  void
 608:Generated_Source\PSoC5/cyfitter_cfg.c **** *
 609:Generated_Source\PSoC5/cyfitter_cfg.c **** *******************************************************************************/
 610:Generated_Source\PSoC5/cyfitter_cfg.c **** void SetAnalogRoutingPumps(uint8 enabled)
 611:Generated_Source\PSoC5/cyfitter_cfg.c **** {
 654              		.loc 1 611 0
 655              		.cfi_startproc
 656              		@ args = 0, pretend = 0, frame = 16
 657              		@ frame_needed = 1, uses_anonymous_args = 0
 658              		@ link register save eliminated.
 659 0000 80B4     		push	{r7}
 660              		.cfi_def_cfa_offset 4
 661              		.cfi_offset 7, -4
 662 0002 85B0     		sub	sp, sp, #20
 663              		.cfi_def_cfa_offset 24
 664 0004 00AF     		add	r7, sp, #0
 665              		.cfi_def_cfa_register 7
 666 0006 0346     		mov	r3, r0
 667 0008 FB71     		strb	r3, [r7, #7]
 612:Generated_Source\PSoC5/cyfitter_cfg.c **** 	uint8 regValue = CY_GET_XTND_REG8((void CYFAR *)CYREG_PUMP_CR0);
 668              		.loc 1 612 0
 669 000a 0B4B     		ldr	r3, .L30
 670 000c 1B78     		ldrb	r3, [r3]
 671 000e FB73     		strb	r3, [r7, #15]
 613:Generated_Source\PSoC5/cyfitter_cfg.c **** 	if (enabled != 0u)
 672              		.loc 1 613 0
 673 0010 FB79     		ldrb	r3, [r7, #7]	@ zero_extendqisi2
 674 0012 002B     		cmp	r3, #0
 675 0014 04D0     		beq	.L28
 614:Generated_Source\PSoC5/cyfitter_cfg.c **** 	{
 615:Generated_Source\PSoC5/cyfitter_cfg.c **** 		regValue |= 0x22u;
 676              		.loc 1 615 0
 677 0016 FB7B     		ldrb	r3, [r7, #15]
 678 0018 43F02203 		orr	r3, r3, #34
 679 001c FB73     		strb	r3, [r7, #15]
 680 001e 03E0     		b	.L29
 681              	.L28:
 616:Generated_Source\PSoC5/cyfitter_cfg.c **** 	}
 617:Generated_Source\PSoC5/cyfitter_cfg.c **** 	else
 618:Generated_Source\PSoC5/cyfitter_cfg.c **** 	{
 619:Generated_Source\PSoC5/cyfitter_cfg.c **** 		regValue &= (uint8)~0x22u;
 682              		.loc 1 619 0
 683 0020 FB7B     		ldrb	r3, [r7, #15]
 684 0022 23F02203 		bic	r3, r3, #34
 685 0026 FB73     		strb	r3, [r7, #15]
 686              	.L29:
 620:Generated_Source\PSoC5/cyfitter_cfg.c **** 	}
ARM GAS  C:\Users\RAPHAE~1\AppData\Local\Temp\cclOmceu.s 			page 24


 621:Generated_Source\PSoC5/cyfitter_cfg.c **** 	CY_SET_XTND_REG8((void CYFAR *)CYREG_PUMP_CR0, regValue);
 687              		.loc 1 621 0
 688 0028 034A     		ldr	r2, .L30
 689 002a FB7B     		ldrb	r3, [r7, #15]
 690 002c 1370     		strb	r3, [r2]
 622:Generated_Source\PSoC5/cyfitter_cfg.c **** }
 691              		.loc 1 622 0
 692 002e 1437     		adds	r7, r7, #20
 693              		.cfi_def_cfa_offset 4
 694 0030 BD46     		mov	sp, r7
 695              		.cfi_def_cfa_register 13
 696              		@ sp needed
 697 0032 5DF8047B 		ldr	r7, [sp], #4
 698              		.cfi_restore 7
 699              		.cfi_def_cfa_offset 0
 700 0036 7047     		bx	lr
 701              	.L31:
 702              		.align	2
 703              	.L30:
 704 0038 76580040 		.word	1073764470
 705              		.cfi_endproc
 706              	.LFE7:
 707              		.size	SetAnalogRoutingPumps, .-SetAnalogRoutingPumps
 708              		.section	.text.cyfitter_cfg,"ax",%progbits
 709              		.align	2
 710              		.global	cyfitter_cfg
 711              		.thumb
 712              		.thumb_func
 713              		.type	cyfitter_cfg, %function
 714              	cyfitter_cfg:
 715              	.LFB8:
 623:Generated_Source\PSoC5/cyfitter_cfg.c **** 
 624:Generated_Source\PSoC5/cyfitter_cfg.c **** #define CY_AMUX_UNUSED CYREG_BOOST_SR
 625:Generated_Source\PSoC5/cyfitter_cfg.c **** 
 626:Generated_Source\PSoC5/cyfitter_cfg.c **** 
 627:Generated_Source\PSoC5/cyfitter_cfg.c **** /*******************************************************************************
 628:Generated_Source\PSoC5/cyfitter_cfg.c **** * Function Name: cyfitter_cfg
 629:Generated_Source\PSoC5/cyfitter_cfg.c **** ********************************************************************************
 630:Generated_Source\PSoC5/cyfitter_cfg.c **** * Summary:
 631:Generated_Source\PSoC5/cyfitter_cfg.c **** *  This function is called by the start-up code for the selected device. It
 632:Generated_Source\PSoC5/cyfitter_cfg.c **** *  performs all of the necessary device configuration based on the design
 633:Generated_Source\PSoC5/cyfitter_cfg.c **** *  settings.  This includes settings from the Design Wide Resources (DWR) such
 634:Generated_Source\PSoC5/cyfitter_cfg.c **** *  as Clocks and Pins as well as any component configuration that is necessary.
 635:Generated_Source\PSoC5/cyfitter_cfg.c **** *
 636:Generated_Source\PSoC5/cyfitter_cfg.c **** * Parameters:  
 637:Generated_Source\PSoC5/cyfitter_cfg.c **** *   void
 638:Generated_Source\PSoC5/cyfitter_cfg.c **** *
 639:Generated_Source\PSoC5/cyfitter_cfg.c **** * Return:
 640:Generated_Source\PSoC5/cyfitter_cfg.c **** *   void
 641:Generated_Source\PSoC5/cyfitter_cfg.c **** *
 642:Generated_Source\PSoC5/cyfitter_cfg.c **** *******************************************************************************/
 643:Generated_Source\PSoC5/cyfitter_cfg.c **** 
 644:Generated_Source\PSoC5/cyfitter_cfg.c **** void cyfitter_cfg(void)
 645:Generated_Source\PSoC5/cyfitter_cfg.c **** {
 716              		.loc 1 645 0
 717              		.cfi_startproc
 718              		@ args = 0, pretend = 0, frame = 0
ARM GAS  C:\Users\RAPHAE~1\AppData\Local\Temp\cclOmceu.s 			page 25


 719              		@ frame_needed = 1, uses_anonymous_args = 0
 720 0000 80B5     		push	{r7, lr}
 721              		.cfi_def_cfa_offset 8
 722              		.cfi_offset 7, -8
 723              		.cfi_offset 14, -4
 724 0002 00AF     		add	r7, sp, #0
 725              		.cfi_def_cfa_register 7
 646:Generated_Source\PSoC5/cyfitter_cfg.c **** #ifdef CYGlobalIntDisable
 647:Generated_Source\PSoC5/cyfitter_cfg.c **** 	/* Disable interrupts by default. Let user enable if/when they want. */
 648:Generated_Source\PSoC5/cyfitter_cfg.c **** 	CYGlobalIntDisable
 726              		.loc 1 648 0
 727              	@ 648 "Generated_Source\PSoC5\cyfitter_cfg.c" 1
 728 0004 72B6     		CPSID   i
 729              	@ 0 "" 2
 649:Generated_Source\PSoC5/cyfitter_cfg.c **** #endif
 650:Generated_Source\PSoC5/cyfitter_cfg.c **** 
 651:Generated_Source\PSoC5/cyfitter_cfg.c **** 
 652:Generated_Source\PSoC5/cyfitter_cfg.c **** 	/* Set Flash Cycles based on max possible frequency in case a glitch occurs during ClockSetup(). *
 653:Generated_Source\PSoC5/cyfitter_cfg.c **** 	CY_SET_XTND_REG8((void CYFAR *)(CYREG_CACHE_CC_CTL), (((CYDEV_INSTRUCT_CACHE_ENABLED) != 0) ? 0x01
 730              		.loc 1 653 0
 731              		.thumb
 732 0006 284B     		ldr	r3, .L33
 733 0008 0022     		movs	r2, #0
 734 000a 1A70     		strb	r2, [r3]
 654:Generated_Source\PSoC5/cyfitter_cfg.c **** 	/* Setup clocks based on selections from Clock DWR */
 655:Generated_Source\PSoC5/cyfitter_cfg.c **** 	ClockSetup();
 735              		.loc 1 655 0
 736 000c FFF7FEFF 		bl	ClockSetup
 656:Generated_Source\PSoC5/cyfitter_cfg.c **** 	/* Enable/Disable Debug functionality based on settings from System DWR */
 657:Generated_Source\PSoC5/cyfitter_cfg.c **** 	CY_SET_XTND_REG8((void CYFAR *)CYREG_MLOGIC_DEBUG, (CY_GET_XTND_REG8((void CYFAR *)CYREG_MLOGIC_DE
 737              		.loc 1 657 0
 738 0010 264A     		ldr	r2, .L33+4
 739 0012 264B     		ldr	r3, .L33+4
 740 0014 1B78     		ldrb	r3, [r3]
 741 0016 DBB2     		uxtb	r3, r3
 742 0018 43F00403 		orr	r3, r3, #4
 743 001c DBB2     		uxtb	r3, r3
 744 001e 1370     		strb	r3, [r2]
 658:Generated_Source\PSoC5/cyfitter_cfg.c **** 
 659:Generated_Source\PSoC5/cyfitter_cfg.c **** 	{
 660:Generated_Source\PSoC5/cyfitter_cfg.c **** 		cfg_dma_init();
 745              		.loc 1 660 0
 746 0020 FFF7FEFF 		bl	cfg_dma_init
 661:Generated_Source\PSoC5/cyfitter_cfg.c **** 
 662:Generated_Source\PSoC5/cyfitter_cfg.c **** 		/* Perform normal device configuration. Order is not critical for these items. */
 663:Generated_Source\PSoC5/cyfitter_cfg.c **** 		CYMEMZERO((void CYFAR *)(CYREG_PHUB_CFGMEM0_CFG0), 4u);
 747              		.loc 1 663 0
 748 0024 2248     		ldr	r0, .L33+8
 749 0026 0421     		movs	r1, #4
 750 0028 FFF7FEFF 		bl	CYMEMZERO
 664:Generated_Source\PSoC5/cyfitter_cfg.c **** 		CYMEMZERO((void CYFAR *)(CYREG_PHUB_CFGMEM1_CFG0), 4u);
 751              		.loc 1 664 0
 752 002c 2148     		ldr	r0, .L33+12
 753 002e 0421     		movs	r1, #4
 754 0030 FFF7FEFF 		bl	CYMEMZERO
 665:Generated_Source\PSoC5/cyfitter_cfg.c **** 
 666:Generated_Source\PSoC5/cyfitter_cfg.c **** 		/* Enable digital routing */
ARM GAS  C:\Users\RAPHAE~1\AppData\Local\Temp\cclOmceu.s 			page 26


 667:Generated_Source\PSoC5/cyfitter_cfg.c **** 		CY_SET_XTND_REG8((void CYFAR *)CYREG_BCTL0_BANK_CTL, CY_GET_XTND_REG8((void CYFAR *)CYREG_BCTL0_B
 755              		.loc 1 667 0
 756 0034 204A     		ldr	r2, .L33+16
 757 0036 204B     		ldr	r3, .L33+16
 758 0038 1B78     		ldrb	r3, [r3]
 759 003a DBB2     		uxtb	r3, r3
 760 003c 43F00203 		orr	r3, r3, #2
 761 0040 DBB2     		uxtb	r3, r3
 762 0042 1370     		strb	r3, [r2]
 668:Generated_Source\PSoC5/cyfitter_cfg.c **** 		CY_SET_XTND_REG8((void CYFAR *)CYREG_BCTL1_BANK_CTL, CY_GET_XTND_REG8((void CYFAR *)CYREG_BCTL1_B
 763              		.loc 1 668 0
 764 0044 1D4A     		ldr	r2, .L33+20
 765 0046 1D4B     		ldr	r3, .L33+20
 766 0048 1B78     		ldrb	r3, [r3]
 767 004a DBB2     		uxtb	r3, r3
 768 004c 43F00203 		orr	r3, r3, #2
 769 0050 DBB2     		uxtb	r3, r3
 770 0052 1370     		strb	r3, [r2]
 669:Generated_Source\PSoC5/cyfitter_cfg.c **** 
 670:Generated_Source\PSoC5/cyfitter_cfg.c **** 		/* Enable UDB array */
 671:Generated_Source\PSoC5/cyfitter_cfg.c **** 		CY_SET_XTND_REG8((void CYFAR *)CYREG_PM_ACT_CFG0, CY_GET_XTND_REG8((void CYFAR *)CYREG_PM_ACT_CFG
 771              		.loc 1 671 0
 772 0054 1A4A     		ldr	r2, .L33+24
 773 0056 1A4B     		ldr	r3, .L33+24
 774 0058 1B78     		ldrb	r3, [r3]
 775 005a DBB2     		uxtb	r3, r3
 776 005c 43F04003 		orr	r3, r3, #64
 777 0060 DBB2     		uxtb	r3, r3
 778 0062 1370     		strb	r3, [r2]
 672:Generated_Source\PSoC5/cyfitter_cfg.c **** 		CY_SET_XTND_REG8((void CYFAR *)CYREG_PM_AVAIL_CR2, CY_GET_XTND_REG8((void CYFAR *)CYREG_PM_AVAIL_
 779              		.loc 1 672 0
 780 0064 174A     		ldr	r2, .L33+28
 781 0066 174B     		ldr	r3, .L33+28
 782 0068 1B78     		ldrb	r3, [r3]
 783 006a DBB2     		uxtb	r3, r3
 784 006c 43F01003 		orr	r3, r3, #16
 785 0070 DBB2     		uxtb	r3, r3
 786 0072 1370     		strb	r3, [r2]
 673:Generated_Source\PSoC5/cyfitter_cfg.c **** 	}
 674:Generated_Source\PSoC5/cyfitter_cfg.c **** 
 675:Generated_Source\PSoC5/cyfitter_cfg.c **** 
 676:Generated_Source\PSoC5/cyfitter_cfg.c **** 	/* Perform second pass device configuration. These items must be configured in specific order afte
 677:Generated_Source\PSoC5/cyfitter_cfg.c **** 	CYCONFIGCPY((void CYFAR *)(CYREG_PRT0_DM0), (const void CYFAR *)(BS_IOPINS0_0_VAL), 8u);
 787              		.loc 1 677 0
 788 0074 1448     		ldr	r0, .L33+32
 789 0076 1549     		ldr	r1, .L33+36
 790 0078 0822     		movs	r2, #8
 791 007a FFF7FEFF 		bl	CYCONFIGCPY
 678:Generated_Source\PSoC5/cyfitter_cfg.c **** 	CYCONFIGCPY((void CYFAR *)(CYREG_PRT1_DR), (const void CYFAR *)(BS_IOPINS0_1_VAL), 10u);
 792              		.loc 1 678 0
 793 007e 1448     		ldr	r0, .L33+40
 794 0080 1449     		ldr	r1, .L33+44
 795 0082 0A22     		movs	r2, #10
 796 0084 FFF7FEFF 		bl	CYCONFIGCPY
 679:Generated_Source\PSoC5/cyfitter_cfg.c **** 	/* Switch Boost to the precision bandgap reference from its internal reference */
 680:Generated_Source\PSoC5/cyfitter_cfg.c **** 	CY_SET_REG8((void CYXDATA *)CYREG_BOOST_CR2, (CY_GET_REG8((void CYXDATA *)CYREG_BOOST_CR2) | 0x08u
 797              		.loc 1 680 0
ARM GAS  C:\Users\RAPHAE~1\AppData\Local\Temp\cclOmceu.s 			page 27


 798 0088 134A     		ldr	r2, .L33+48
 799 008a 134B     		ldr	r3, .L33+48
 800 008c 1B78     		ldrb	r3, [r3]
 801 008e DBB2     		uxtb	r3, r3
 802 0090 43F00803 		orr	r3, r3, #8
 803 0094 DBB2     		uxtb	r3, r3
 804 0096 1370     		strb	r3, [r2]
 681:Generated_Source\PSoC5/cyfitter_cfg.c **** 
 682:Generated_Source\PSoC5/cyfitter_cfg.c **** 	/* Perform basic analog initialization to defaults */
 683:Generated_Source\PSoC5/cyfitter_cfg.c **** 	AnalogSetDefault();
 805              		.loc 1 683 0
 806 0098 FFF7FEFF 		bl	AnalogSetDefault
 684:Generated_Source\PSoC5/cyfitter_cfg.c **** 
 685:Generated_Source\PSoC5/cyfitter_cfg.c **** 	/* Configure alternate active mode */
 686:Generated_Source\PSoC5/cyfitter_cfg.c **** 	CYCONFIGCPY((void CYFAR *)CYDEV_PM_STBY_BASE, (const void CYFAR *)CYDEV_PM_ACT_BASE, 14u);
 807              		.loc 1 686 0
 808 009c 0F48     		ldr	r0, .L33+52
 809 009e 0849     		ldr	r1, .L33+24
 810 00a0 0E22     		movs	r2, #14
 811 00a2 FFF7FEFF 		bl	CYCONFIGCPY
 687:Generated_Source\PSoC5/cyfitter_cfg.c **** }
 812              		.loc 1 687 0
 813 00a6 80BD     		pop	{r7, pc}
 814              	.L34:
 815              		.align	2
 816              	.L33:
 817 00a8 00480040 		.word	1073760256
 818 00ac E8460040 		.word	1073759976
 819 00b0 00760040 		.word	1073772032
 820 00b4 08760040 		.word	1073772040
 821 00b8 03500140 		.word	1073827843
 822 00bc 13500140 		.word	1073827859
 823 00c0 A0430040 		.word	1073759136
 824 00c4 C2430040 		.word	1073759170
 825 00c8 02510040 		.word	1073762562
 826 00cc 0C0D0048 		.word	1207962892
 827 00d0 10510040 		.word	1073762576
 828 00d4 140D0048 		.word	1207962900
 829 00d8 22430040 		.word	1073759010
 830 00dc B0430040 		.word	1073759152
 831              		.cfi_endproc
 832              	.LFE8:
 833              		.size	cyfitter_cfg, .-cyfitter_cfg
 834              		.bss
 835              		.align	3
 836              	DMA_ZERO_VAL.4848:
 837 0000 00000000 		.space	4
 838 0004 00000000 		.section	.dma_init,"a",%progbits
 839              		.align	2
 840              		.type	CFG_TD_LIST0.4849, %object
 841              		.size	CFG_TD_LIST0.4849, 448
 842              	CFG_TD_LIST0.4849:
 843 0000 0800     		.short	8
 844 0002 02       		.byte	2
 845 0003 23       		.byte	35
 846 0004 0000     		.short	0
 847 0006 0876     		.short	30216
ARM GAS  C:\Users\RAPHAE~1\AppData\Local\Temp\cclOmceu.s 			page 28


 848 0008 0800     		.short	8
 849 000a 03       		.byte	3
 850 000b 23       		.byte	35
 851 000c 0000     		.short	0
 852 000e 1076     		.short	30224
 853 0010 0800     		.short	8
 854 0012 04       		.byte	4
 855 0013 23       		.byte	35
 856 0014 0000     		.short	0
 857 0016 2876     		.short	30248
 858 0018 0800     		.short	8
 859 001a 05       		.byte	5
 860 001b 23       		.byte	35
 861 001c 0000     		.short	0
 862 001e 3076     		.short	30256
 863 0020 0500     		.short	5
 864 0022 06       		.byte	6
 865 0023 23       		.byte	35
 866 0024 0000     		.short	0
 867 0026 2070     		.short	28704
 868 0028 0500     		.short	5
 869 002a 07       		.byte	7
 870 002b 23       		.byte	35
 871 002c 0000     		.short	0
 872 002e 3070     		.short	28720
 873 0030 0500     		.short	5
 874 0032 08       		.byte	8
 875 0033 23       		.byte	35
 876 0034 0000     		.short	0
 877 0036 6070     		.short	28768
 878 0038 0500     		.short	5
 879 003a FE       		.byte	-2
 880 003b 23       		.byte	35
 881 003c 0000     		.short	0
 882 003e 7070     		.short	28784
 883 0040 1000     		.short	16
 884 0042 0A       		.byte	10
 885 0043 22       		.byte	34
 886 0044 0000     		.short	0
 887 0046 2051     		.short	20768
 888 0048 3000     		.short	48
 889 004a 0B       		.byte	11
 890 004b 22       		.byte	34
 891 004c 0000     		.short	0
 892 004e 4051     		.short	20800
 893 0050 1000     		.short	16
 894 0052 0C       		.byte	12
 895 0053 22       		.byte	34
 896 0054 0000     		.short	0
 897 0056 C051     		.short	20928
 898 0058 1000     		.short	16
 899 005a FE       		.byte	-2
 900 005b 22       		.byte	34
 901 005c 0000     		.short	0
 902 005e F051     		.short	20976
 903 0060 8007     		.short	1920
 904 0062 0E       		.byte	14
ARM GAS  C:\Users\RAPHAE~1\AppData\Local\Temp\cclOmceu.s 			page 29


 905 0063 22       		.byte	34
 906 0064 0000     		.short	0
 907 0066 0000     		.short	0
 908 0068 0006     		.short	1536
 909 006a 0F       		.byte	15
 910 006b 22       		.byte	34
 911 006c 0000     		.short	0
 912 006e 000A     		.short	2560
 913 0070 8001     		.short	384
 914 0072 10       		.byte	16
 915 0073 22       		.byte	34
 916 0074 0000     		.short	0
 917 0076 0014     		.short	5120
 918 0078 8001     		.short	384
 919 007a 11       		.byte	17
 920 007b 22       		.byte	34
 921 007c 0000     		.short	0
 922 007e 0016     		.short	5632
 923 0080 8001     		.short	384
 924 0082 12       		.byte	18
 925 0083 22       		.byte	34
 926 0084 0000     		.short	0
 927 0086 001A     		.short	6656
 928 0088 8000     		.short	128
 929 008a 13       		.byte	19
 930 008b 22       		.byte	34
 931 008c 0000     		.short	0
 932 008e 0041     		.short	16640
 933 0090 8000     		.short	128
 934 0092 14       		.byte	20
 935 0093 22       		.byte	34
 936 0094 0000     		.short	0
 937 0096 0042     		.short	16896
 938 0098 8000     		.short	128
 939 009a 15       		.byte	21
 940 009b 22       		.byte	34
 941 009c 0000     		.short	0
 942 009e 0043     		.short	17152
 943 00a0 0003     		.short	768
 944 00a2 16       		.byte	22
 945 00a3 22       		.byte	34
 946 00a4 0000     		.short	0
 947 00a6 0044     		.short	17408
 948 00a8 8000     		.short	128
 949 00aa 17       		.byte	23
 950 00ab 22       		.byte	34
 951 00ac 0000     		.short	0
 952 00ae 0049     		.short	18688
 953 00b0 8000     		.short	128
 954 00b2 FE       		.byte	-2
 955 00b3 22       		.byte	34
 956 00b4 0000     		.short	0
 957 00b6 004D     		.short	19712
 958 00b8 0700     		.short	7
 959 00ba 19       		.byte	25
 960 00bb 23       		.byte	35
 961 00bc 0000     		.short	0
ARM GAS  C:\Users\RAPHAE~1\AppData\Local\Temp\cclOmceu.s 			page 30


 962 00be 0852     		.short	21000
 963 00c0 0C00     		.short	12
 964 00c2 1A       		.byte	26
 965 00c3 23       		.byte	35
 966 00c4 0000     		.short	0
 967 00c6 004F     		.short	20224
 968 00c8 0800     		.short	8
 969 00ca 1B       		.byte	27
 970 00cb 23       		.byte	35
 971 00cc 0000     		.short	0
 972 00ce 985A     		.short	23192
 973 00d0 2000     		.short	32
 974 00d2 1C       		.byte	28
 975 00d3 23       		.byte	35
 976 00d4 0000     		.short	0
 977 00d6 7064     		.short	25712
 978 00d8 2000     		.short	32
 979 00da FE       		.byte	-2
 980 00db 23       		.byte	35
 981 00dc 0000     		.short	0
 982 00de 7065     		.short	25968
 983 00e0 0800     		.short	8
 984 00e2 1E       		.byte	30
 985 00e3 23       		.byte	35
 986 00e4 0000     		.short	0
 987 00e6 0051     		.short	20736
 988 00e8 8000     		.short	128
 989 00ea 1F       		.byte	31
 990 00eb 23       		.byte	35
 991 00ec 0000     		.short	0
 992 00ee 0008     		.short	2048
 993 00f0 8000     		.short	128
 994 00f2 20       		.byte	32
 995 00f3 23       		.byte	35
 996 00f4 0000     		.short	0
 997 00f6 8008     		.short	2176
 998 00f8 8000     		.short	128
 999 00fa 21       		.byte	33
 1000 00fb 23       		.byte	35
 1001 00fc 0000     		.short	0
 1002 00fe 0018     		.short	6144
 1003 0100 8000     		.short	128
 1004 0102 22       		.byte	34
 1005 0103 23       		.byte	35
 1006 0104 0000     		.short	0
 1007 0106 8018     		.short	6272
 1008 0108 1000     		.short	16
 1009 010a 23       		.byte	35
 1010 010b 23       		.byte	35
 1011 010c 0000     		.short	0
 1012 010e 1050     		.short	20496
 1013 0110 1000     		.short	16
 1014 0112 24       		.byte	36
 1015 0113 23       		.byte	35
 1016 0114 0000     		.short	0
 1017 0116 0050     		.short	20480
 1018 0118 8000     		.short	128
ARM GAS  C:\Users\RAPHAE~1\AppData\Local\Temp\cclOmceu.s 			page 31


 1019 011a 25       		.byte	37
 1020 011b 23       		.byte	35
 1021 011c 0000     		.short	0
 1022 011e 804D     		.short	19840
 1023 0120 8000     		.short	128
 1024 0122 26       		.byte	38
 1025 0123 23       		.byte	35
 1026 0124 0000     		.short	0
 1027 0126 004C     		.short	19456
 1028 0128 8000     		.short	128
 1029 012a 27       		.byte	39
 1030 012b 23       		.byte	35
 1031 012c 0000     		.short	0
 1032 012e 804C     		.short	19584
 1033 0130 8000     		.short	128
 1034 0132 28       		.byte	40
 1035 0133 23       		.byte	35
 1036 0134 0000     		.short	0
 1037 0136 0047     		.short	18176
 1038 0138 8000     		.short	128
 1039 013a 29       		.byte	41
 1040 013b 23       		.byte	35
 1041 013c 0000     		.short	0
 1042 013e 8047     		.short	18304
 1043 0140 8000     		.short	128
 1044 0142 2A       		.byte	42
 1045 0143 23       		.byte	35
 1046 0144 0000     		.short	0
 1047 0146 801B     		.short	7040
 1048 0148 8000     		.short	128
 1049 014a 2B       		.byte	43
 1050 014b 23       		.byte	35
 1051 014c 0000     		.short	0
 1052 014e 8015     		.short	5504
 1053 0150 8000     		.short	128
 1054 0152 2C       		.byte	44
 1055 0153 23       		.byte	35
 1056 0154 0000     		.short	0
 1057 0156 0019     		.short	6400
 1058 0158 8000     		.short	128
 1059 015a 2D       		.byte	45
 1060 015b 23       		.byte	35
 1061 015c 0000     		.short	0
 1062 015e 8019     		.short	6528
 1063 0160 8000     		.short	128
 1064 0162 2E       		.byte	46
 1065 0163 23       		.byte	35
 1066 0164 0000     		.short	0
 1067 0166 8017     		.short	6016
 1068 0168 8000     		.short	128
 1069 016a 2F       		.byte	47
 1070 016b 23       		.byte	35
 1071 016c 0000     		.short	0
 1072 016e 0009     		.short	2304
 1073 0170 8000     		.short	128
 1074 0172 30       		.byte	48
 1075 0173 23       		.byte	35
ARM GAS  C:\Users\RAPHAE~1\AppData\Local\Temp\cclOmceu.s 			page 32


 1076 0174 0000     		.short	0
 1077 0176 8009     		.short	2432
 1078 0178 8000     		.short	128
 1079 017a 31       		.byte	49
 1080 017b 23       		.byte	35
 1081 017c 0000     		.short	0
 1082 017e 8007     		.short	1920
 1083 0180 8000     		.short	128
 1084 0182 32       		.byte	50
 1085 0183 23       		.byte	35
 1086 0184 0000     		.short	0
 1087 0186 8049     		.short	18816
 1088 0188 8000     		.short	128
 1089 018a 33       		.byte	51
 1090 018b 23       		.byte	35
 1091 018c 0000     		.short	0
 1092 018e 0048     		.short	18432
 1093 0190 8000     		.short	128
 1094 0192 34       		.byte	52
 1095 0193 23       		.byte	35
 1096 0194 0000     		.short	0
 1097 0196 8048     		.short	18560
 1098 0198 8000     		.short	128
 1099 019a 35       		.byte	53
 1100 019b 23       		.byte	35
 1101 019c 0000     		.short	0
 1102 019e 8043     		.short	17280
 1103 01a0 8000     		.short	128
 1104 01a2 36       		.byte	54
 1105 01a3 23       		.byte	35
 1106 01a4 0000     		.short	0
 1107 01a6 8042     		.short	17024
 1108 01a8 8000     		.short	128
 1109 01aa 37       		.byte	55
 1110 01ab 23       		.byte	35
 1111 01ac 0000     		.short	0
 1112 01ae 8041     		.short	16768
 1113 01b0 8000     		.short	128
 1114 01b2 38       		.byte	56
 1115 01b3 23       		.byte	35
 1116 01b4 0000     		.short	0
 1117 01b6 0040     		.short	16384
 1118 01b8 8000     		.short	128
 1119 01ba FE       		.byte	-2
 1120 01bb 23       		.byte	35
 1121 01bc 0000     		.short	0
 1122 01be 8040     		.short	16512
 1123              		.section	.rodata
 1124              		.align	2
 1125              		.type	CFG_TD_ADDR0.4850, %object
 1126              		.size	CFG_TD_ADDR0.4850, 224
 1127              	CFG_TD_ADDR0.4850:
 1128 0000 E0010000 		.word	CH1_ADDR_DATA0.4843
 1129 0004 D8010000 		.word	CH2_ADDR_DATA0.4844
 1130 0008 D0010000 		.word	CH5_ADDR_DATA0.4845
 1131 000c C8010000 		.word	CH6_ADDR_DATA0.4846
 1132 0010 C0010000 		.word	DMA_TD_START_CMD.4847
ARM GAS  C:\Users\RAPHAE~1\AppData\Local\Temp\cclOmceu.s 			page 33


 1133 0014 C0010000 		.word	DMA_TD_START_CMD.4847
 1134 0018 C0010000 		.word	DMA_TD_START_CMD.4847
 1135 001c C0010000 		.word	DMA_TD_START_CMD.4847
 1136 0020 00000000 		.word	DMA_ZERO_VAL.4848
 1137 0024 00000000 		.word	DMA_ZERO_VAL.4848
 1138 0028 00000000 		.word	DMA_ZERO_VAL.4848
 1139 002c 00000000 		.word	DMA_ZERO_VAL.4848
 1140 0030 00000000 		.word	DMA_ZERO_VAL.4848
 1141 0034 00000000 		.word	DMA_ZERO_VAL.4848
 1142 0038 00000000 		.word	DMA_ZERO_VAL.4848
 1143 003c 00000000 		.word	DMA_ZERO_VAL.4848
 1144 0040 00000000 		.word	DMA_ZERO_VAL.4848
 1145 0044 00000000 		.word	DMA_ZERO_VAL.4848
 1146 0048 00000000 		.word	DMA_ZERO_VAL.4848
 1147 004c 00000000 		.word	DMA_ZERO_VAL.4848
 1148 0050 00000000 		.word	DMA_ZERO_VAL.4848
 1149 0054 00000000 		.word	DMA_ZERO_VAL.4848
 1150 0058 00000000 		.word	DMA_ZERO_VAL.4848
 1151 005c 08000048 		.word	1207959560
 1152 0060 18000048 		.word	1207959576
 1153 0064 24000048 		.word	1207959588
 1154 0068 2C020048 		.word	1207960108
 1155 006c 4C020048 		.word	1207960140
 1156 0070 10000048 		.word	1207959568
 1157 0074 2C000048 		.word	1207959596
 1158 0078 AC000048 		.word	1207959724
 1159 007c 2C010048 		.word	1207959852
 1160 0080 AC010048 		.word	1207959980
 1161 0084 6C020048 		.word	1207960172
 1162 0088 7C020048 		.word	1207960188
 1163 008c 8C020048 		.word	1207960204
 1164 0090 0C030048 		.word	1207960332
 1165 0094 8C030048 		.word	1207960460
 1166 0098 0C040048 		.word	1207960588
 1167 009c 8C040048 		.word	1207960716
 1168 00a0 0C050048 		.word	1207960844
 1169 00a4 8C050048 		.word	1207960972
 1170 00a8 0C060048 		.word	1207961100
 1171 00ac 8C060048 		.word	1207961228
 1172 00b0 0C070048 		.word	1207961356
 1173 00b4 8C070048 		.word	1207961484
 1174 00b8 0C080048 		.word	1207961612
 1175 00bc 8C080048 		.word	1207961740
 1176 00c0 0C090048 		.word	1207961868
 1177 00c4 8C090048 		.word	1207961996
 1178 00c8 0C0A0048 		.word	1207962124
 1179 00cc 8C0A0048 		.word	1207962252
 1180 00d0 0C0B0048 		.word	1207962380
 1181 00d4 8C0B0048 		.word	1207962508
 1182 00d8 0C0C0048 		.word	1207962636
 1183 00dc 8C0C0048 		.word	1207962764
 1184              		.section	.dma_init
 1185              		.align	2
 1186              		.type	DMA_TD_START_CMD.4847, %object
 1187              		.size	DMA_TD_START_CMD.4847, 5
 1188              	DMA_TD_START_CMD.4847:
 1189 01c0 01       		.byte	1
ARM GAS  C:\Users\RAPHAE~1\AppData\Local\Temp\cclOmceu.s 			page 34


 1190 01c1 00       		.byte	0
 1191 01c2 00       		.byte	0
 1192 01c3 00       		.byte	0
 1193 01c4 01       		.byte	1
 1194 01c5 000000   		.align	2
 1195              		.type	CH6_ADDR_DATA0.4846, %object
 1196              		.size	CH6_ADDR_DATA0.4846, 8
 1197              	CH6_ADDR_DATA0.4846:
 1198 01c8 01       		.byte	1
 1199 01c9 00       		.byte	0
 1200 01ca 00       		.byte	0
 1201 01cb 00       		.byte	0
 1202 01cc 00       		.byte	0
 1203 01cd 48       		.byte	72
 1204 01ce 01       		.byte	1
 1205 01cf 40       		.byte	64
 1206              		.align	2
 1207              		.type	CH5_ADDR_DATA0.4845, %object
 1208              		.size	CH5_ADDR_DATA0.4845, 8
 1209              	CH5_ADDR_DATA0.4845:
 1210 01d0 01       		.byte	1
 1211 01d1 00       		.byte	0
 1212 01d2 00       		.byte	0
 1213 01d3 00       		.byte	0
 1214 01d4 00       		.byte	0
 1215 01d5 48       		.byte	72
 1216 01d6 00       		.byte	0
 1217 01d7 40       		.byte	64
 1218              		.align	2
 1219              		.type	CH2_ADDR_DATA0.4844, %object
 1220              		.size	CH2_ADDR_DATA0.4844, 8
 1221              	CH2_ADDR_DATA0.4844:
 1222 01d8 01       		.byte	1
 1223 01d9 00       		.byte	0
 1224 01da 00       		.byte	0
 1225 01db 00       		.byte	0
 1226 01dc 00       		.byte	0
 1227 01dd 20       		.byte	32
 1228 01de 01       		.byte	1
 1229 01df 40       		.byte	64
 1230              		.align	2
 1231              		.type	CH1_ADDR_DATA0.4843, %object
 1232              		.size	CH1_ADDR_DATA0.4843, 8
 1233              	CH1_ADDR_DATA0.4843:
 1234 01e0 01       		.byte	1
 1235 01e1 00       		.byte	0
 1236 01e2 00       		.byte	0
 1237 01e3 00       		.byte	0
 1238 01e4 00       		.byte	0
 1239 01e5 20       		.byte	32
 1240 01e6 00       		.byte	0
 1241 01e7 40       		.byte	64
 1242              		.text
 1243              	.Letext0:
 1244              		.file 2 "c:\\program files (x86)\\cypress\\psoc creator\\4.0\\psoc creator\\import\\gnu\\arm\\4.9.
 1245              		.file 3 "Generated_Source\\PSoC5\\cytypes.h"